
hello_modificado.mips:     file format elf32-bigmips


Disassembly of section .text:

00000100 <_start>:
     100:	3c1d0050 	lui	sp,0x50
     104:	23bdfc00 	addi	sp,sp,-1024
     108:	3c1c0001 	lui	gp,0x1
     10c:	279cf820 	addiu	gp,gp,-2016
     110:	0c00004a 	jal	128 <main>
     114:	00000000 	nop
     118:	00000000 	nop
     11c:	0c001987 	jal	661c <_exit>
     120:	00000000 	nop
     124:	00000000 	nop

00000128 <main>:
     128:	27bdffe0 	addiu	sp,sp,-32
     12c:	afbf001c 	sw	ra,28(sp)
     130:	afbe0018 	sw	s8,24(sp)
     134:	03a0f021 	move	s8,sp
     138:	24020001 	li	v0,1
     13c:	afc20010 	sw	v0,16(s8)
     140:	8fc20010 	lw	v0,16(s8)
     144:	00000000 	nop
     148:	2442fffb 	addiu	v0,v0,-5
     14c:	afc20014 	sw	v0,20(s8)
     150:	3c020000 	lui	v0,0x0
     154:	24446ce0 	addiu	a0,v0,27872
     158:	0c0000b3 	jal	2cc <puts>
     15c:	00000000 	nop
     160:	00001021 	move	v0,zero
     164:	03c0e821 	move	sp,s8
     168:	8fbf001c 	lw	ra,28(sp)
     16c:	8fbe0018 	lw	s8,24(sp)
     170:	27bd0020 	addiu	sp,sp,32
     174:	03e00008 	jr	ra
     178:	00000000 	nop

0000017c <_puts_r>:
     17c:	27bdffc8 	addiu	sp,sp,-56
     180:	afbf0034 	sw	ra,52(sp)
     184:	afbe0030 	sw	s8,48(sp)
     188:	03a0f021 	move	s8,sp
     18c:	afc40038 	sw	a0,56(s8)
     190:	afc5003c 	sw	a1,60(s8)
     194:	8fc4003c 	lw	a0,60(s8)
     198:	0c0000c4 	jal	310 <strlen>
     19c:	00000000 	nop
     1a0:	afc20010 	sw	v0,16(s8)
     1a4:	8fc2003c 	lw	v0,60(s8)
     1a8:	00000000 	nop
     1ac:	afc20020 	sw	v0,32(s8)
     1b0:	8fc20010 	lw	v0,16(s8)
     1b4:	00000000 	nop
     1b8:	afc20024 	sw	v0,36(s8)
     1bc:	3c020000 	lui	v0,0x0
     1c0:	24426cec 	addiu	v0,v0,27884
     1c4:	afc20028 	sw	v0,40(s8)
     1c8:	24020001 	li	v0,1
     1cc:	afc2002c 	sw	v0,44(s8)
     1d0:	8fc20010 	lw	v0,16(s8)
     1d4:	00000000 	nop
     1d8:	24420001 	addiu	v0,v0,1
     1dc:	afc2001c 	sw	v0,28(s8)
     1e0:	27c20020 	addiu	v0,s8,32
     1e4:	afc20014 	sw	v0,20(s8)
     1e8:	24020002 	li	v0,2
     1ec:	afc20018 	sw	v0,24(s8)
     1f0:	8f828010 	lw	v0,-32752(gp)
     1f4:	00000000 	nop
     1f8:	8c420008 	lw	v0,8(v0)
     1fc:	00000000 	nop
     200:	8442000c 	lh	v0,12(v0)
     204:	00000000 	nop
     208:	3042ffff 	andi	v0,v0,0xffff
     20c:	30422000 	andi	v0,v0,0x2000
     210:	14400019 	bnez	v0,278 <_puts_r+0xfc>
     214:	00000000 	nop
     218:	8f828010 	lw	v0,-32752(gp)
     21c:	00000000 	nop
     220:	8c420008 	lw	v0,8(v0)
     224:	8f838010 	lw	v1,-32752(gp)
     228:	00000000 	nop
     22c:	8c630008 	lw	v1,8(v1)
     230:	00000000 	nop
     234:	8463000c 	lh	v1,12(v1)
     238:	00000000 	nop
     23c:	34632000 	ori	v1,v1,0x2000
     240:	00031c00 	sll	v1,v1,0x10
     244:	00031c03 	sra	v1,v1,0x10
     248:	a443000c 	sh	v1,12(v0)
     24c:	8f828010 	lw	v0,-32752(gp)
     250:	00000000 	nop
     254:	8c420008 	lw	v0,8(v0)
     258:	8f838010 	lw	v1,-32752(gp)
     25c:	00000000 	nop
     260:	8c630008 	lw	v1,8(v1)
     264:	00000000 	nop
     268:	8c640064 	lw	a0,100(v1)
     26c:	2403dfff 	li	v1,-8193
     270:	00831824 	and	v1,a0,v1
     274:	ac430064 	sw	v1,100(v0)
     278:	8fc20038 	lw	v0,56(s8)
     27c:	00000000 	nop
     280:	8c430008 	lw	v1,8(v0)
     284:	27c20014 	addiu	v0,s8,20
     288:	8fc40038 	lw	a0,56(s8)
     28c:	00602821 	move	a1,v1
     290:	00403021 	move	a2,v0
     294:	0c0000cb 	jal	32c <__sfvwrite_r>
     298:	00000000 	nop
     29c:	10400004 	beqz	v0,2b0 <_puts_r+0x134>
     2a0:	00000000 	nop
     2a4:	2402ffff 	li	v0,-1
     2a8:	080000ad 	j	2b4 <_puts_r+0x138>
     2ac:	00000000 	nop
     2b0:	2402000a 	li	v0,10
     2b4:	03c0e821 	move	sp,s8
     2b8:	8fbf0034 	lw	ra,52(sp)
     2bc:	8fbe0030 	lw	s8,48(sp)
     2c0:	27bd0038 	addiu	sp,sp,56
     2c4:	03e00008 	jr	ra
     2c8:	00000000 	nop

000002cc <puts>:
     2cc:	27bdffe8 	addiu	sp,sp,-24
     2d0:	afbf0014 	sw	ra,20(sp)
     2d4:	afbe0010 	sw	s8,16(sp)
     2d8:	03a0f021 	move	s8,sp
     2dc:	afc40018 	sw	a0,24(s8)
     2e0:	8f828010 	lw	v0,-32752(gp)
     2e4:	00000000 	nop
     2e8:	00402021 	move	a0,v0
     2ec:	8fc50018 	lw	a1,24(s8)
     2f0:	0c00005f 	jal	17c <_puts_r>
     2f4:	00000000 	nop
     2f8:	03c0e821 	move	sp,s8
     2fc:	8fbf0014 	lw	ra,20(sp)
     300:	8fbe0010 	lw	s8,16(sp)
     304:	27bd0018 	addiu	sp,sp,24
     308:	03e00008 	jr	ra
     30c:	00000000 	nop

00000310 <strlen>:
     310:	24820001 	addiu	v0,a0,1
     314:	90830000 	lbu	v1,0(a0)
     318:	00000000 	nop
     31c:	1460fffd 	bnez	v1,314 <strlen+0x4>
     320:	24840001 	addiu	a0,a0,1
     324:	03e00008 	jr	ra
     328:	00821023 	subu	v0,a0,v0

0000032c <__sfvwrite_r>:
     32c:	27bdffb0 	addiu	sp,sp,-80
     330:	afbf004c 	sw	ra,76(sp)
     334:	afbe0048 	sw	s8,72(sp)
     338:	afb60044 	sw	s6,68(sp)
     33c:	afb50040 	sw	s5,64(sp)
     340:	afb4003c 	sw	s4,60(sp)
     344:	afb30038 	sw	s3,56(sp)
     348:	afb20034 	sw	s2,52(sp)
     34c:	afb10030 	sw	s1,48(sp)
     350:	afb0002c 	sw	s0,44(sp)
     354:	03a0f021 	move	s8,sp
     358:	afc40050 	sw	a0,80(s8)
     35c:	00a08021 	move	s0,a1
     360:	00c0a821 	move	s5,a2
     364:	00009821 	move	s3,zero
     368:	8ea20008 	lw	v0,8(s5)
     36c:	00000000 	nop
     370:	00409021 	move	s2,v0
     374:	16400004 	bnez	s2,388 <__sfvwrite_r+0x5c>
     378:	00000000 	nop
     37c:	00001021 	move	v0,zero
     380:	080002ab 	j	aac <__sfvwrite_r+0x780>
     384:	00000000 	nop
     388:	8602000c 	lh	v0,12(s0)
     38c:	00000000 	nop
     390:	3042ffff 	andi	v0,v0,0xffff
     394:	30420008 	andi	v0,v0,0x8
     398:	10400005 	beqz	v0,3b0 <__sfvwrite_r+0x84>
     39c:	00000000 	nop
     3a0:	8e020010 	lw	v0,16(s0)
     3a4:	00000000 	nop
     3a8:	1440000a 	bnez	v0,3d4 <__sfvwrite_r+0xa8>
     3ac:	00000000 	nop
     3b0:	8fc40050 	lw	a0,80(s8)
     3b4:	02002821 	move	a1,s0
     3b8:	0c000e9b 	jal	3a6c <__swsetup_r>
     3bc:	00000000 	nop
     3c0:	10400004 	beqz	v0,3d4 <__sfvwrite_r+0xa8>
     3c4:	00000000 	nop
     3c8:	2402ffff 	li	v0,-1
     3cc:	080002ab 	j	aac <__sfvwrite_r+0x780>
     3d0:	00000000 	nop
     3d4:	8eb40000 	lw	s4,0(s5)
     3d8:	00009021 	move	s2,zero
     3dc:	8602000c 	lh	v0,12(s0)
     3e0:	00000000 	nop
     3e4:	3042ffff 	andi	v0,v0,0xffff
     3e8:	30420002 	andi	v0,v0,0x2
     3ec:	10400027 	beqz	v0,48c <__sfvwrite_r+0x160>
     3f0:	00000000 	nop
     3f4:	08000102 	j	408 <__sfvwrite_r+0xdc>
     3f8:	00000000 	nop
     3fc:	8e930000 	lw	s3,0(s4)
     400:	8e920004 	lw	s2,4(s4)
     404:	26940008 	addiu	s4,s4,8
     408:	1240fffc 	beqz	s2,3fc <__sfvwrite_r+0xd0>
     40c:	00000000 	nop
     410:	8e030024 	lw	v1,36(s0)
     414:	8e05001c 	lw	a1,28(s0)
     418:	02401021 	move	v0,s2
     41c:	2c440401 	sltiu	a0,v0,1025
     420:	14800002 	bnez	a0,42c <__sfvwrite_r+0x100>
     424:	00000000 	nop
     428:	24020400 	li	v0,1024
     42c:	8fc40050 	lw	a0,80(s8)
     430:	02603021 	move	a2,s3
     434:	00403821 	move	a3,v0
     438:	0060f809 	jalr	v1
     43c:	00000000 	nop
     440:	00408821 	move	s1,v0
     444:	1e200003 	bgtz	s1,454 <__sfvwrite_r+0x128>
     448:	00000000 	nop
     44c:	080002a4 	j	a90 <__sfvwrite_r+0x764>
     450:	00000000 	nop
     454:	02201021 	move	v0,s1
     458:	02629821 	addu	s3,s3,v0
     45c:	02201021 	move	v0,s1
     460:	02429023 	subu	s2,s2,v0
     464:	8ea20008 	lw	v0,8(s5)
     468:	00000000 	nop
     46c:	00511023 	subu	v0,v0,s1
     470:	aea20008 	sw	v0,8(s5)
     474:	8ea20008 	lw	v0,8(s5)
     478:	00000000 	nop
     47c:	1440ffdd 	bnez	v0,3f4 <__sfvwrite_r+0xc8>
     480:	00000000 	nop
     484:	080002a1 	j	a84 <__sfvwrite_r+0x758>
     488:	00000000 	nop
     48c:	8602000c 	lh	v0,12(s0)
     490:	00000000 	nop
     494:	3042ffff 	andi	v0,v0,0xffff
     498:	30420001 	andi	v0,v0,0x1
     49c:	144000eb 	bnez	v0,84c <__sfvwrite_r+0x520>
     4a0:	00000000 	nop
     4a4:	0800012e 	j	4b8 <__sfvwrite_r+0x18c>
     4a8:	00000000 	nop
     4ac:	8e930000 	lw	s3,0(s4)
     4b0:	8e920004 	lw	s2,4(s4)
     4b4:	26940008 	addiu	s4,s4,8
     4b8:	1240fffc 	beqz	s2,4ac <__sfvwrite_r+0x180>
     4bc:	00000000 	nop
     4c0:	8e110008 	lw	s1,8(s0)
     4c4:	8602000c 	lh	v0,12(s0)
     4c8:	00000000 	nop
     4cc:	3042ffff 	andi	v0,v0,0xffff
     4d0:	30420200 	andi	v0,v0,0x200
     4d4:	1040008d 	beqz	v0,70c <__sfvwrite_r+0x3e0>
     4d8:	00000000 	nop
     4dc:	02201021 	move	v0,s1
     4e0:	0242102b 	sltu	v0,s2,v0
     4e4:	14400072 	bnez	v0,6b0 <__sfvwrite_r+0x384>
     4e8:	00000000 	nop
     4ec:	8602000c 	lh	v0,12(s0)
     4f0:	00000000 	nop
     4f4:	3042ffff 	andi	v0,v0,0xffff
     4f8:	30420480 	andi	v0,v0,0x480
     4fc:	1040006c 	beqz	v0,6b0 <__sfvwrite_r+0x384>
     500:	00000000 	nop
     504:	8e020000 	lw	v0,0(s0)
     508:	00000000 	nop
     50c:	00401821 	move	v1,v0
     510:	8e020010 	lw	v0,16(s0)
     514:	00000000 	nop
     518:	00621023 	subu	v0,v1,v0
     51c:	afc20020 	sw	v0,32(s8)
     520:	8e030014 	lw	v1,20(s0)
     524:	00000000 	nop
     528:	00601021 	move	v0,v1
     52c:	00021040 	sll	v0,v0,0x1
     530:	00431021 	addu	v0,v0,v1
     534:	00021fc2 	srl	v1,v0,0x1f
     538:	00621021 	addu	v0,v1,v0
     53c:	00021043 	sra	v0,v0,0x1
     540:	afc2001c 	sw	v0,28(s8)
     544:	8fc3001c 	lw	v1,28(s8)
     548:	8fc20020 	lw	v0,32(s8)
     54c:	00000000 	nop
     550:	00521021 	addu	v0,v0,s2
     554:	24420001 	addiu	v0,v0,1
     558:	0062102b 	sltu	v0,v1,v0
     55c:	10400006 	beqz	v0,578 <__sfvwrite_r+0x24c>
     560:	00000000 	nop
     564:	8fc20020 	lw	v0,32(s8)
     568:	00000000 	nop
     56c:	00521021 	addu	v0,v0,s2
     570:	24420001 	addiu	v0,v0,1
     574:	afc2001c 	sw	v0,28(s8)
     578:	8602000c 	lh	v0,12(s0)
     57c:	00000000 	nop
     580:	3042ffff 	andi	v0,v0,0xffff
     584:	30420400 	andi	v0,v0,0x400
     588:	10400022 	beqz	v0,614 <__sfvwrite_r+0x2e8>
     58c:	00000000 	nop
     590:	8fc2001c 	lw	v0,28(s8)
     594:	8fc40050 	lw	a0,80(s8)
     598:	00402821 	move	a1,v0
     59c:	0c0003e4 	jal	f90 <_malloc_r>
     5a0:	00000000 	nop
     5a4:	afc20018 	sw	v0,24(s8)
     5a8:	8fc20018 	lw	v0,24(s8)
     5ac:	00000000 	nop
     5b0:	14400006 	bnez	v0,5cc <__sfvwrite_r+0x2a0>
     5b4:	00000000 	nop
     5b8:	8fc20050 	lw	v0,80(s8)
     5bc:	2403000c 	li	v1,12
     5c0:	ac430000 	sw	v1,0(v0)
     5c4:	080002a4 	j	a90 <__sfvwrite_r+0x764>
     5c8:	00000000 	nop
     5cc:	8e030010 	lw	v1,16(s0)
     5d0:	8fc20020 	lw	v0,32(s8)
     5d4:	8fc40018 	lw	a0,24(s8)
     5d8:	00602821 	move	a1,v1
     5dc:	00403021 	move	a2,v0
     5e0:	0c000877 	jal	21dc <memcpy>
     5e4:	00000000 	nop
     5e8:	8603000c 	lh	v1,12(s0)
     5ec:	2402fb7f 	li	v0,-1153
     5f0:	00621024 	and	v0,v1,v0
     5f4:	00021400 	sll	v0,v0,0x10
     5f8:	00021403 	sra	v0,v0,0x10
     5fc:	34420080 	ori	v0,v0,0x80
     600:	00021400 	sll	v0,v0,0x10
     604:	00021403 	sra	v0,v0,0x10
     608:	a602000c 	sh	v0,12(s0)
     60c:	0800019b 	j	66c <__sfvwrite_r+0x340>
     610:	00000000 	nop
     614:	8e030010 	lw	v1,16(s0)
     618:	8fc2001c 	lw	v0,28(s8)
     61c:	8fc40050 	lw	a0,80(s8)
     620:	00602821 	move	a1,v1
     624:	00403021 	move	a2,v0
     628:	0c000a38 	jal	28e0 <_realloc_r>
     62c:	00000000 	nop
     630:	afc20018 	sw	v0,24(s8)
     634:	8fc20018 	lw	v0,24(s8)
     638:	00000000 	nop
     63c:	1440000b 	bnez	v0,66c <__sfvwrite_r+0x340>
     640:	00000000 	nop
     644:	8e020010 	lw	v0,16(s0)
     648:	8fc40050 	lw	a0,80(s8)
     64c:	00402821 	move	a1,v0
     650:	0c00126d 	jal	49b4 <_free_r>
     654:	00000000 	nop
     658:	8fc20050 	lw	v0,80(s8)
     65c:	2403000c 	li	v1,12
     660:	ac430000 	sw	v1,0(v0)
     664:	080002a4 	j	a90 <__sfvwrite_r+0x764>
     668:	00000000 	nop
     66c:	8fc20018 	lw	v0,24(s8)
     670:	00000000 	nop
     674:	ae020010 	sw	v0,16(s0)
     678:	8fc20020 	lw	v0,32(s8)
     67c:	8fc30018 	lw	v1,24(s8)
     680:	00000000 	nop
     684:	00621021 	addu	v0,v1,v0
     688:	ae020000 	sw	v0,0(s0)
     68c:	8fc2001c 	lw	v0,28(s8)
     690:	00000000 	nop
     694:	ae020014 	sw	v0,20(s0)
     698:	02408821 	move	s1,s2
     69c:	8fc3001c 	lw	v1,28(s8)
     6a0:	8fc20020 	lw	v0,32(s8)
     6a4:	00000000 	nop
     6a8:	00621023 	subu	v0,v1,v0
     6ac:	ae020008 	sw	v0,8(s0)
     6b0:	02201021 	move	v0,s1
     6b4:	0242102b 	sltu	v0,s2,v0
     6b8:	10400002 	beqz	v0,6c4 <__sfvwrite_r+0x398>
     6bc:	00000000 	nop
     6c0:	02408821 	move	s1,s2
     6c4:	8e030000 	lw	v1,0(s0)
     6c8:	02201021 	move	v0,s1
     6cc:	00602021 	move	a0,v1
     6d0:	02602821 	move	a1,s3
     6d4:	00403021 	move	a2,v0
     6d8:	0c000969 	jal	25a4 <memmove>
     6dc:	00000000 	nop
     6e0:	8e020008 	lw	v0,8(s0)
     6e4:	00000000 	nop
     6e8:	00511023 	subu	v0,v0,s1
     6ec:	ae020008 	sw	v0,8(s0)
     6f0:	8e030000 	lw	v1,0(s0)
     6f4:	02201021 	move	v0,s1
     6f8:	00621021 	addu	v0,v1,v0
     6fc:	ae020000 	sw	v0,0(s0)
     700:	02408821 	move	s1,s2
     704:	08000205 	j	814 <__sfvwrite_r+0x4e8>
     708:	00000000 	nop
     70c:	8e030000 	lw	v1,0(s0)
     710:	8e020010 	lw	v0,16(s0)
     714:	00000000 	nop
     718:	0043102b 	sltu	v0,v0,v1
     71c:	1040001a 	beqz	v0,788 <__sfvwrite_r+0x45c>
     720:	00000000 	nop
     724:	02201021 	move	v0,s1
     728:	0052102b 	sltu	v0,v0,s2
     72c:	10400016 	beqz	v0,788 <__sfvwrite_r+0x45c>
     730:	00000000 	nop
     734:	8e030000 	lw	v1,0(s0)
     738:	02201021 	move	v0,s1
     73c:	00602021 	move	a0,v1
     740:	02602821 	move	a1,s3
     744:	00403021 	move	a2,v0
     748:	0c000969 	jal	25a4 <memmove>
     74c:	00000000 	nop
     750:	8e030000 	lw	v1,0(s0)
     754:	02201021 	move	v0,s1
     758:	00621021 	addu	v0,v1,v0
     75c:	ae020000 	sw	v0,0(s0)
     760:	8fc40050 	lw	a0,80(s8)
     764:	02002821 	move	a1,s0
     768:	0c001047 	jal	411c <_fflush_r>
     76c:	00000000 	nop
     770:	10400003 	beqz	v0,780 <__sfvwrite_r+0x454>
     774:	00000000 	nop
     778:	080002a4 	j	a90 <__sfvwrite_r+0x764>
     77c:	00000000 	nop
     780:	08000205 	j	814 <__sfvwrite_r+0x4e8>
     784:	00000000 	nop
     788:	8e110014 	lw	s1,20(s0)
     78c:	00000000 	nop
     790:	02201021 	move	v0,s1
     794:	0242102b 	sltu	v0,s2,v0
     798:	1440000e 	bnez	v0,7d4 <__sfvwrite_r+0x4a8>
     79c:	00000000 	nop
     7a0:	8e020024 	lw	v0,36(s0)
     7a4:	8e03001c 	lw	v1,28(s0)
     7a8:	8fc40050 	lw	a0,80(s8)
     7ac:	00602821 	move	a1,v1
     7b0:	02603021 	move	a2,s3
     7b4:	02203821 	move	a3,s1
     7b8:	0040f809 	jalr	v0
     7bc:	00000000 	nop
     7c0:	00408821 	move	s1,v0
     7c4:	1e200013 	bgtz	s1,814 <__sfvwrite_r+0x4e8>
     7c8:	00000000 	nop
     7cc:	080002a4 	j	a90 <__sfvwrite_r+0x764>
     7d0:	00000000 	nop
     7d4:	02408821 	move	s1,s2
     7d8:	8e030000 	lw	v1,0(s0)
     7dc:	02201021 	move	v0,s1
     7e0:	00602021 	move	a0,v1
     7e4:	02602821 	move	a1,s3
     7e8:	00403021 	move	a2,v0
     7ec:	0c000969 	jal	25a4 <memmove>
     7f0:	00000000 	nop
     7f4:	8e020008 	lw	v0,8(s0)
     7f8:	00000000 	nop
     7fc:	00511023 	subu	v0,v0,s1
     800:	ae020008 	sw	v0,8(s0)
     804:	8e030000 	lw	v1,0(s0)
     808:	02201021 	move	v0,s1
     80c:	00621021 	addu	v0,v1,v0
     810:	ae020000 	sw	v0,0(s0)
     814:	02201021 	move	v0,s1
     818:	02629821 	addu	s3,s3,v0
     81c:	02201021 	move	v0,s1
     820:	02429023 	subu	s2,s2,v0
     824:	8ea20008 	lw	v0,8(s5)
     828:	00000000 	nop
     82c:	00511023 	subu	v0,v0,s1
     830:	aea20008 	sw	v0,8(s5)
     834:	8ea20008 	lw	v0,8(s5)
     838:	00000000 	nop
     83c:	1440ff19 	bnez	v0,4a4 <__sfvwrite_r+0x178>
     840:	00000000 	nop
     844:	080002a1 	j	a84 <__sfvwrite_r+0x758>
     848:	00000000 	nop
     84c:	afc00010 	sw	zero,16(s8)
     850:	afc00014 	sw	zero,20(s8)
     854:	0800021d 	j	874 <__sfvwrite_r+0x548>
     858:	00000000 	nop
     85c:	0800021d 	j	874 <__sfvwrite_r+0x548>
     860:	00000000 	nop
     864:	afc00010 	sw	zero,16(s8)
     868:	8e930000 	lw	s3,0(s4)
     86c:	8e920004 	lw	s2,4(s4)
     870:	26940008 	addiu	s4,s4,8
     874:	1240fffb 	beqz	s2,864 <__sfvwrite_r+0x538>
     878:	00000000 	nop
     87c:	8fc20010 	lw	v0,16(s8)
     880:	00000000 	nop
     884:	14400017 	bnez	v0,8e4 <__sfvwrite_r+0x5b8>
     888:	00000000 	nop
     88c:	02602021 	move	a0,s3
     890:	2405000a 	li	a1,10
     894:	02403021 	move	a2,s2
     898:	0c0007da 	jal	1f68 <memchr>
     89c:	00000000 	nop
     8a0:	afc20024 	sw	v0,36(s8)
     8a4:	8fc20024 	lw	v0,36(s8)
     8a8:	00000000 	nop
     8ac:	10400009 	beqz	v0,8d4 <__sfvwrite_r+0x5a8>
     8b0:	00000000 	nop
     8b4:	8fc20024 	lw	v0,36(s8)
     8b8:	00000000 	nop
     8bc:	24420001 	addiu	v0,v0,1
     8c0:	00401821 	move	v1,v0
     8c4:	02601021 	move	v0,s3
     8c8:	00621023 	subu	v0,v1,v0
     8cc:	08000236 	j	8d8 <__sfvwrite_r+0x5ac>
     8d0:	00000000 	nop
     8d4:	26420001 	addiu	v0,s2,1
     8d8:	afc20014 	sw	v0,20(s8)
     8dc:	24020001 	li	v0,1
     8e0:	afc20010 	sw	v0,16(s8)
     8e4:	8fc20014 	lw	v0,20(s8)
     8e8:	00000000 	nop
     8ec:	0242182b 	sltu	v1,s2,v0
     8f0:	10600002 	beqz	v1,8fc <__sfvwrite_r+0x5d0>
     8f4:	00000000 	nop
     8f8:	02401021 	move	v0,s2
     8fc:	0040b021 	move	s6,v0
     900:	8e030008 	lw	v1,8(s0)
     904:	8e020014 	lw	v0,20(s0)
     908:	00000000 	nop
     90c:	00628821 	addu	s1,v1,v0
     910:	8e030000 	lw	v1,0(s0)
     914:	8e020010 	lw	v0,16(s0)
     918:	00000000 	nop
     91c:	0043102b 	sltu	v0,v0,v1
     920:	10400019 	beqz	v0,988 <__sfvwrite_r+0x65c>
     924:	00000000 	nop
     928:	0236102a 	slt	v0,s1,s6
     92c:	10400016 	beqz	v0,988 <__sfvwrite_r+0x65c>
     930:	00000000 	nop
     934:	8e030000 	lw	v1,0(s0)
     938:	02201021 	move	v0,s1
     93c:	00602021 	move	a0,v1
     940:	02602821 	move	a1,s3
     944:	00403021 	move	a2,v0
     948:	0c000969 	jal	25a4 <memmove>
     94c:	00000000 	nop
     950:	8e030000 	lw	v1,0(s0)
     954:	02201021 	move	v0,s1
     958:	00621021 	addu	v0,v1,v0
     95c:	ae020000 	sw	v0,0(s0)
     960:	8fc40050 	lw	a0,80(s8)
     964:	02002821 	move	a1,s0
     968:	0c001047 	jal	411c <_fflush_r>
     96c:	00000000 	nop
     970:	10400003 	beqz	v0,980 <__sfvwrite_r+0x654>
     974:	00000000 	nop
     978:	080002a4 	j	a90 <__sfvwrite_r+0x764>
     97c:	00000000 	nop
     980:	08000284 	j	a10 <__sfvwrite_r+0x6e4>
     984:	00000000 	nop
     988:	8e110014 	lw	s1,20(s0)
     98c:	00000000 	nop
     990:	02d1102a 	slt	v0,s6,s1
     994:	1440000e 	bnez	v0,9d0 <__sfvwrite_r+0x6a4>
     998:	00000000 	nop
     99c:	8e020024 	lw	v0,36(s0)
     9a0:	8e03001c 	lw	v1,28(s0)
     9a4:	8fc40050 	lw	a0,80(s8)
     9a8:	00602821 	move	a1,v1
     9ac:	02603021 	move	a2,s3
     9b0:	02203821 	move	a3,s1
     9b4:	0040f809 	jalr	v0
     9b8:	00000000 	nop
     9bc:	00408821 	move	s1,v0
     9c0:	1e200013 	bgtz	s1,a10 <__sfvwrite_r+0x6e4>
     9c4:	00000000 	nop
     9c8:	080002a4 	j	a90 <__sfvwrite_r+0x764>
     9cc:	00000000 	nop
     9d0:	02c08821 	move	s1,s6
     9d4:	8e030000 	lw	v1,0(s0)
     9d8:	02201021 	move	v0,s1
     9dc:	00602021 	move	a0,v1
     9e0:	02602821 	move	a1,s3
     9e4:	00403021 	move	a2,v0
     9e8:	0c000969 	jal	25a4 <memmove>
     9ec:	00000000 	nop
     9f0:	8e020008 	lw	v0,8(s0)
     9f4:	00000000 	nop
     9f8:	00511023 	subu	v0,v0,s1
     9fc:	ae020008 	sw	v0,8(s0)
     a00:	8e030000 	lw	v1,0(s0)
     a04:	02201021 	move	v0,s1
     a08:	00621021 	addu	v0,v1,v0
     a0c:	ae020000 	sw	v0,0(s0)
     a10:	8fc20014 	lw	v0,20(s8)
     a14:	00000000 	nop
     a18:	00511023 	subu	v0,v0,s1
     a1c:	afc20014 	sw	v0,20(s8)
     a20:	8fc20014 	lw	v0,20(s8)
     a24:	00000000 	nop
     a28:	1440000a 	bnez	v0,a54 <__sfvwrite_r+0x728>
     a2c:	00000000 	nop
     a30:	8fc40050 	lw	a0,80(s8)
     a34:	02002821 	move	a1,s0
     a38:	0c001047 	jal	411c <_fflush_r>
     a3c:	00000000 	nop
     a40:	10400003 	beqz	v0,a50 <__sfvwrite_r+0x724>
     a44:	00000000 	nop
     a48:	080002a4 	j	a90 <__sfvwrite_r+0x764>
     a4c:	00000000 	nop
     a50:	afc00010 	sw	zero,16(s8)
     a54:	02201021 	move	v0,s1
     a58:	02629821 	addu	s3,s3,v0
     a5c:	02201021 	move	v0,s1
     a60:	02429023 	subu	s2,s2,v0
     a64:	8ea20008 	lw	v0,8(s5)
     a68:	00000000 	nop
     a6c:	00511023 	subu	v0,v0,s1
     a70:	aea20008 	sw	v0,8(s5)
     a74:	8ea20008 	lw	v0,8(s5)
     a78:	00000000 	nop
     a7c:	1440ff77 	bnez	v0,85c <__sfvwrite_r+0x530>
     a80:	00000000 	nop
     a84:	00001021 	move	v0,zero
     a88:	080002ab 	j	aac <__sfvwrite_r+0x780>
     a8c:	00000000 	nop
     a90:	8602000c 	lh	v0,12(s0)
     a94:	00000000 	nop
     a98:	34420040 	ori	v0,v0,0x40
     a9c:	00021400 	sll	v0,v0,0x10
     aa0:	00021403 	sra	v0,v0,0x10
     aa4:	a602000c 	sh	v0,12(s0)
     aa8:	2402ffff 	li	v0,-1
     aac:	03c0e821 	move	sp,s8
     ab0:	8fbf004c 	lw	ra,76(sp)
     ab4:	8fbe0048 	lw	s8,72(sp)
     ab8:	8fb60044 	lw	s6,68(sp)
     abc:	8fb50040 	lw	s5,64(sp)
     ac0:	8fb4003c 	lw	s4,60(sp)
     ac4:	8fb30038 	lw	s3,56(sp)
     ac8:	8fb20034 	lw	s2,52(sp)
     acc:	8fb10030 	lw	s1,48(sp)
     ad0:	8fb0002c 	lw	s0,44(sp)
     ad4:	27bd0050 	addiu	sp,sp,80
     ad8:	03e00008 	jr	ra
     adc:	00000000 	nop

00000ae0 <malloc_extend_top>:
     ae0:	27bdffb8 	addiu	sp,sp,-72
     ae4:	afbf0044 	sw	ra,68(sp)
     ae8:	afbe0040 	sw	s8,64(sp)
     aec:	03a0f021 	move	s8,sp
     af0:	afc40048 	sw	a0,72(s8)
     af4:	afc5004c 	sw	a1,76(s8)
     af8:	afc00020 	sw	zero,32(s8)
     afc:	3c020000 	lui	v0,0x0
     b00:	24427428 	addiu	v0,v0,29736
     b04:	8c420008 	lw	v0,8(v0)
     b08:	00000000 	nop
     b0c:	afc20024 	sw	v0,36(s8)
     b10:	8fc20024 	lw	v0,36(s8)
     b14:	00000000 	nop
     b18:	8c430004 	lw	v1,4(v0)
     b1c:	2402fffc 	li	v0,-4
     b20:	00621024 	and	v0,v1,v0
     b24:	afc20028 	sw	v0,40(s8)
     b28:	8fc30024 	lw	v1,36(s8)
     b2c:	8fc20028 	lw	v0,40(s8)
     b30:	00000000 	nop
     b34:	00621021 	addu	v0,v1,v0
     b38:	afc2002c 	sw	v0,44(s8)
     b3c:	8f838020 	lw	v1,-32736(gp)
     b40:	8fc2004c 	lw	v0,76(s8)
     b44:	00000000 	nop
     b48:	00621021 	addu	v0,v1,v0
     b4c:	24420010 	addiu	v0,v0,16
     b50:	afc2001c 	sw	v0,28(s8)
     b54:	24021000 	li	v0,4096
     b58:	afc20030 	sw	v0,48(s8)
     b5c:	8f83801c 	lw	v1,-32740(gp)
     b60:	2402ffff 	li	v0,-1
     b64:	1062000b 	beq	v1,v0,b94 <malloc_extend_top+0xb4>
     b68:	00000000 	nop
     b6c:	8fc30030 	lw	v1,48(s8)
     b70:	8fc2001c 	lw	v0,28(s8)
     b74:	00000000 	nop
     b78:	00621021 	addu	v0,v1,v0
     b7c:	2443ffff 	addiu	v1,v0,-1
     b80:	8fc20030 	lw	v0,48(s8)
     b84:	00000000 	nop
     b88:	00021023 	negu	v0,v0
     b8c:	00621024 	and	v0,v1,v0
     b90:	afc2001c 	sw	v0,28(s8)
     b94:	8fc2001c 	lw	v0,28(s8)
     b98:	8fc40048 	lw	a0,72(s8)
     b9c:	00402821 	move	a1,v0
     ba0:	0c000e7d 	jal	39f4 <_sbrk_r>
     ba4:	00000000 	nop
     ba8:	afc20010 	sw	v0,16(s8)
     bac:	8fc30010 	lw	v1,16(s8)
     bb0:	2402ffff 	li	v0,-1
     bb4:	1062000c 	beq	v1,v0,be8 <malloc_extend_top+0x108>
     bb8:	00000000 	nop
     bbc:	8fc30010 	lw	v1,16(s8)
     bc0:	8fc2002c 	lw	v0,44(s8)
     bc4:	00000000 	nop
     bc8:	0062102b 	sltu	v0,v1,v0
     bcc:	10400008 	beqz	v0,bf0 <malloc_extend_top+0x110>
     bd0:	00000000 	nop
     bd4:	8fc30024 	lw	v1,36(s8)
     bd8:	3c020000 	lui	v0,0x0
     bdc:	24427428 	addiu	v0,v0,29736
     be0:	10620003 	beq	v1,v0,bf0 <malloc_extend_top+0x110>
     be4:	00000000 	nop
     be8:	080003de 	j	f78 <malloc_extend_top+0x498>
     bec:	00000000 	nop
     bf0:	3c020000 	lui	v0,0x0
     bf4:	8c42785c 	lw	v0,30812(v0)
     bf8:	00000000 	nop
     bfc:	00401821 	move	v1,v0
     c00:	8fc2001c 	lw	v0,28(s8)
     c04:	00000000 	nop
     c08:	00621021 	addu	v0,v1,v0
     c0c:	00401821 	move	v1,v0
     c10:	3c020000 	lui	v0,0x0
     c14:	ac43785c 	sw	v1,30812(v0)
     c18:	8fc30010 	lw	v1,16(s8)
     c1c:	8fc2002c 	lw	v0,44(s8)
     c20:	00000000 	nop
     c24:	14620017 	bne	v1,v0,c84 <malloc_extend_top+0x1a4>
     c28:	00000000 	nop
     c2c:	8fc20030 	lw	v0,48(s8)
     c30:	00000000 	nop
     c34:	2443ffff 	addiu	v1,v0,-1
     c38:	8fc2002c 	lw	v0,44(s8)
     c3c:	00000000 	nop
     c40:	00621024 	and	v0,v1,v0
     c44:	1440000f 	bnez	v0,c84 <malloc_extend_top+0x1a4>
     c48:	00000000 	nop
     c4c:	8fc3001c 	lw	v1,28(s8)
     c50:	8fc20028 	lw	v0,40(s8)
     c54:	00000000 	nop
     c58:	00621021 	addu	v0,v1,v0
     c5c:	afc20034 	sw	v0,52(s8)
     c60:	3c020000 	lui	v0,0x0
     c64:	24427428 	addiu	v0,v0,29736
     c68:	8c420008 	lw	v0,8(v0)
     c6c:	8fc30034 	lw	v1,52(s8)
     c70:	00000000 	nop
     c74:	34630001 	ori	v1,v1,0x1
     c78:	ac430004 	sw	v1,4(v0)
     c7c:	080003c4 	j	f10 <malloc_extend_top+0x430>
     c80:	00000000 	nop
     c84:	8f83801c 	lw	v1,-32740(gp)
     c88:	2402ffff 	li	v0,-1
     c8c:	14620006 	bne	v1,v0,ca8 <malloc_extend_top+0x1c8>
     c90:	00000000 	nop
     c94:	8fc20010 	lw	v0,16(s8)
     c98:	00000000 	nop
     c9c:	af82801c 	sw	v0,-32740(gp)
     ca0:	08000333 	j	ccc <malloc_extend_top+0x1ec>
     ca4:	00000000 	nop
     ca8:	3c020000 	lui	v0,0x0
     cac:	8c43785c 	lw	v1,30812(v0)
     cb0:	8fc40010 	lw	a0,16(s8)
     cb4:	8fc2002c 	lw	v0,44(s8)
     cb8:	00000000 	nop
     cbc:	00821023 	subu	v0,a0,v0
     cc0:	00621821 	addu	v1,v1,v0
     cc4:	3c020000 	lui	v0,0x0
     cc8:	ac43785c 	sw	v1,30812(v0)
     ccc:	8fc20010 	lw	v0,16(s8)
     cd0:	00000000 	nop
     cd4:	24420008 	addiu	v0,v0,8
     cd8:	30420007 	andi	v0,v0,0x7
     cdc:	afc20038 	sw	v0,56(s8)
     ce0:	8fc20038 	lw	v0,56(s8)
     ce4:	00000000 	nop
     ce8:	1040000d 	beqz	v0,d20 <malloc_extend_top+0x240>
     cec:	00000000 	nop
     cf0:	24030008 	li	v1,8
     cf4:	8fc20038 	lw	v0,56(s8)
     cf8:	00000000 	nop
     cfc:	00621023 	subu	v0,v1,v0
     d00:	afc20014 	sw	v0,20(s8)
     d04:	8fc30010 	lw	v1,16(s8)
     d08:	8fc20014 	lw	v0,20(s8)
     d0c:	00000000 	nop
     d10:	00621021 	addu	v0,v1,v0
     d14:	afc20010 	sw	v0,16(s8)
     d18:	08000349 	j	d24 <malloc_extend_top+0x244>
     d1c:	00000000 	nop
     d20:	afc00014 	sw	zero,20(s8)
     d24:	8fc30010 	lw	v1,16(s8)
     d28:	8fc2001c 	lw	v0,28(s8)
     d2c:	00000000 	nop
     d30:	00621021 	addu	v0,v1,v0
     d34:	00401821 	move	v1,v0
     d38:	8fc20030 	lw	v0,48(s8)
     d3c:	00000000 	nop
     d40:	2442ffff 	addiu	v0,v0,-1
     d44:	00621024 	and	v0,v1,v0
     d48:	8fc30030 	lw	v1,48(s8)
     d4c:	00000000 	nop
     d50:	00621023 	subu	v0,v1,v0
     d54:	8fc30014 	lw	v1,20(s8)
     d58:	00000000 	nop
     d5c:	00621021 	addu	v0,v1,v0
     d60:	afc20014 	sw	v0,20(s8)
     d64:	8fc20014 	lw	v0,20(s8)
     d68:	8fc40048 	lw	a0,72(s8)
     d6c:	00402821 	move	a1,v0
     d70:	0c000e7d 	jal	39f4 <_sbrk_r>
     d74:	00000000 	nop
     d78:	afc20018 	sw	v0,24(s8)
     d7c:	8fc30018 	lw	v1,24(s8)
     d80:	2402ffff 	li	v0,-1
     d84:	14620007 	bne	v1,v0,da4 <malloc_extend_top+0x2c4>
     d88:	00000000 	nop
     d8c:	afc00014 	sw	zero,20(s8)
     d90:	24020001 	li	v0,1
     d94:	afc20020 	sw	v0,32(s8)
     d98:	8fc20010 	lw	v0,16(s8)
     d9c:	00000000 	nop
     da0:	afc20018 	sw	v0,24(s8)
     da4:	3c020000 	lui	v0,0x0
     da8:	8c42785c 	lw	v0,30812(v0)
     dac:	00000000 	nop
     db0:	00401821 	move	v1,v0
     db4:	8fc20014 	lw	v0,20(s8)
     db8:	00000000 	nop
     dbc:	00621021 	addu	v0,v1,v0
     dc0:	00401821 	move	v1,v0
     dc4:	3c020000 	lui	v0,0x0
     dc8:	ac43785c 	sw	v1,30812(v0)
     dcc:	3c020000 	lui	v0,0x0
     dd0:	24427428 	addiu	v0,v0,29736
     dd4:	8fc30010 	lw	v1,16(s8)
     dd8:	00000000 	nop
     ddc:	ac430008 	sw	v1,8(v0)
     de0:	8fc30018 	lw	v1,24(s8)
     de4:	8fc20010 	lw	v0,16(s8)
     de8:	00000000 	nop
     dec:	00621023 	subu	v0,v1,v0
     df0:	00401821 	move	v1,v0
     df4:	8fc20014 	lw	v0,20(s8)
     df8:	00000000 	nop
     dfc:	00621021 	addu	v0,v1,v0
     e00:	afc20034 	sw	v0,52(s8)
     e04:	3c020000 	lui	v0,0x0
     e08:	24427428 	addiu	v0,v0,29736
     e0c:	8c420008 	lw	v0,8(v0)
     e10:	8fc30034 	lw	v1,52(s8)
     e14:	00000000 	nop
     e18:	34630001 	ori	v1,v1,0x1
     e1c:	ac430004 	sw	v1,4(v0)
     e20:	8fc30024 	lw	v1,36(s8)
     e24:	3c020000 	lui	v0,0x0
     e28:	24427428 	addiu	v0,v0,29736
     e2c:	10620038 	beq	v1,v0,f10 <malloc_extend_top+0x430>
     e30:	00000000 	nop
     e34:	8fc20028 	lw	v0,40(s8)
     e38:	00000000 	nop
     e3c:	2c420010 	sltiu	v0,v0,16
     e40:	10400008 	beqz	v0,e64 <malloc_extend_top+0x384>
     e44:	00000000 	nop
     e48:	3c020000 	lui	v0,0x0
     e4c:	24427428 	addiu	v0,v0,29736
     e50:	8c420008 	lw	v0,8(v0)
     e54:	24030001 	li	v1,1
     e58:	ac430004 	sw	v1,4(v0)
     e5c:	080003de 	j	f78 <malloc_extend_top+0x498>
     e60:	00000000 	nop
     e64:	8fc20028 	lw	v0,40(s8)
     e68:	00000000 	nop
     e6c:	2443fff4 	addiu	v1,v0,-12
     e70:	2402fff8 	li	v0,-8
     e74:	00621024 	and	v0,v1,v0
     e78:	afc20028 	sw	v0,40(s8)
     e7c:	8fc20024 	lw	v0,36(s8)
     e80:	00000000 	nop
     e84:	8c420004 	lw	v0,4(v0)
     e88:	00000000 	nop
     e8c:	30430001 	andi	v1,v0,0x1
     e90:	8fc20028 	lw	v0,40(s8)
     e94:	00000000 	nop
     e98:	00621825 	or	v1,v1,v0
     e9c:	8fc20024 	lw	v0,36(s8)
     ea0:	00000000 	nop
     ea4:	ac430004 	sw	v1,4(v0)
     ea8:	8fc30024 	lw	v1,36(s8)
     eac:	8fc20028 	lw	v0,40(s8)
     eb0:	00000000 	nop
     eb4:	00621021 	addu	v0,v1,v0
     eb8:	24030005 	li	v1,5
     ebc:	ac430004 	sw	v1,4(v0)
     ec0:	8fc20028 	lw	v0,40(s8)
     ec4:	00000000 	nop
     ec8:	24420004 	addiu	v0,v0,4
     ecc:	8fc30024 	lw	v1,36(s8)
     ed0:	00000000 	nop
     ed4:	00621021 	addu	v0,v1,v0
     ed8:	24030005 	li	v1,5
     edc:	ac430004 	sw	v1,4(v0)
     ee0:	8fc20028 	lw	v0,40(s8)
     ee4:	00000000 	nop
     ee8:	2c420010 	sltiu	v0,v0,16
     eec:	14400008 	bnez	v0,f10 <malloc_extend_top+0x430>
     ef0:	00000000 	nop
     ef4:	8fc20024 	lw	v0,36(s8)
     ef8:	00000000 	nop
     efc:	24420008 	addiu	v0,v0,8
     f00:	8fc40048 	lw	a0,72(s8)
     f04:	00402821 	move	a1,v0
     f08:	0c00126d 	jal	49b4 <_free_r>
     f0c:	00000000 	nop
     f10:	3c020000 	lui	v0,0x0
     f14:	8c42785c 	lw	v0,30812(v0)
     f18:	00000000 	nop
     f1c:	00401821 	move	v1,v0
     f20:	8f828024 	lw	v0,-32732(gp)
     f24:	00000000 	nop
     f28:	0043102b 	sltu	v0,v0,v1
     f2c:	10400005 	beqz	v0,f44 <malloc_extend_top+0x464>
     f30:	00000000 	nop
     f34:	3c020000 	lui	v0,0x0
     f38:	8c42785c 	lw	v0,30812(v0)
     f3c:	00000000 	nop
     f40:	af828024 	sw	v0,-32732(gp)
     f44:	3c020000 	lui	v0,0x0
     f48:	8c42785c 	lw	v0,30812(v0)
     f4c:	00000000 	nop
     f50:	00401821 	move	v1,v0
     f54:	8f828028 	lw	v0,-32728(gp)
     f58:	00000000 	nop
     f5c:	0043102b 	sltu	v0,v0,v1
     f60:	10400005 	beqz	v0,f78 <malloc_extend_top+0x498>
     f64:	00000000 	nop
     f68:	3c020000 	lui	v0,0x0
     f6c:	8c42785c 	lw	v0,30812(v0)
     f70:	00000000 	nop
     f74:	af828028 	sw	v0,-32728(gp)
     f78:	03c0e821 	move	sp,s8
     f7c:	8fbf0044 	lw	ra,68(sp)
     f80:	8fbe0040 	lw	s8,64(sp)
     f84:	27bd0048 	addiu	sp,sp,72
     f88:	03e00008 	jr	ra
     f8c:	00000000 	nop

00000f90 <_malloc_r>:
     f90:	27bdffb0 	addiu	sp,sp,-80
     f94:	afbf004c 	sw	ra,76(sp)
     f98:	afbe0048 	sw	s8,72(sp)
     f9c:	03a0f021 	move	s8,sp
     fa0:	afc40050 	sw	a0,80(s8)
     fa4:	afc50054 	sw	a1,84(s8)
     fa8:	8fc20054 	lw	v0,84(s8)
     fac:	00000000 	nop
     fb0:	2442000b 	addiu	v0,v0,11
     fb4:	2c420017 	sltiu	v0,v0,23
     fb8:	14400008 	bnez	v0,fdc <_malloc_r+0x4c>
     fbc:	00000000 	nop
     fc0:	8fc20054 	lw	v0,84(s8)
     fc4:	00000000 	nop
     fc8:	2443000b 	addiu	v1,v0,11
     fcc:	2402fff8 	li	v0,-8
     fd0:	00621024 	and	v0,v1,v0
     fd4:	080003f8 	j	fe0 <_malloc_r+0x50>
     fd8:	00000000 	nop
     fdc:	24020010 	li	v0,16
     fe0:	afc20034 	sw	v0,52(s8)
     fe4:	8fc20034 	lw	v0,52(s8)
     fe8:	00000000 	nop
     fec:	04400007 	bltz	v0,100c <_malloc_r+0x7c>
     ff0:	00000000 	nop
     ff4:	8fc30034 	lw	v1,52(s8)
     ff8:	8fc20054 	lw	v0,84(s8)
     ffc:	00000000 	nop
    1000:	0062102b 	sltu	v0,v1,v0
    1004:	10400007 	beqz	v0,1024 <_malloc_r+0x94>
    1008:	00000000 	nop
    100c:	8fc20050 	lw	v0,80(s8)
    1010:	2403000c 	li	v1,12
    1014:	ac430000 	sw	v1,0(v0)
    1018:	00001021 	move	v0,zero
    101c:	080007d4 	j	1f50 <_malloc_r+0xfc0>
    1020:	00000000 	nop
    1024:	8fc40050 	lw	a0,80(s8)
    1028:	0c000a26 	jal	2898 <__malloc_lock>
    102c:	00000000 	nop
    1030:	8fc20034 	lw	v0,52(s8)
    1034:	00000000 	nop
    1038:	2c4201f8 	sltiu	v0,v0,504
    103c:	10400057 	beqz	v0,119c <_malloc_r+0x20c>
    1040:	00000000 	nop
    1044:	8fc20034 	lw	v0,52(s8)
    1048:	00000000 	nop
    104c:	000210c2 	srl	v0,v0,0x3
    1050:	afc20014 	sw	v0,20(s8)
    1054:	8fc20014 	lw	v0,20(s8)
    1058:	00000000 	nop
    105c:	00021040 	sll	v0,v0,0x1
    1060:	00021880 	sll	v1,v0,0x2
    1064:	3c020000 	lui	v0,0x0
    1068:	24427428 	addiu	v0,v0,29736
    106c:	00621021 	addu	v0,v1,v0
    1070:	afc20030 	sw	v0,48(s8)
    1074:	8fc20030 	lw	v0,48(s8)
    1078:	00000000 	nop
    107c:	8c42000c 	lw	v0,12(v0)
    1080:	00000000 	nop
    1084:	afc20010 	sw	v0,16(s8)
    1088:	8fc30010 	lw	v1,16(s8)
    108c:	8fc20030 	lw	v0,48(s8)
    1090:	00000000 	nop
    1094:	1462000a 	bne	v1,v0,10c0 <_malloc_r+0x130>
    1098:	00000000 	nop
    109c:	8fc20030 	lw	v0,48(s8)
    10a0:	00000000 	nop
    10a4:	24420008 	addiu	v0,v0,8
    10a8:	afc20030 	sw	v0,48(s8)
    10ac:	8fc20030 	lw	v0,48(s8)
    10b0:	00000000 	nop
    10b4:	8c42000c 	lw	v0,12(v0)
    10b8:	00000000 	nop
    10bc:	afc20010 	sw	v0,16(s8)
    10c0:	8fc30010 	lw	v1,16(s8)
    10c4:	8fc20030 	lw	v0,48(s8)
    10c8:	00000000 	nop
    10cc:	1062002d 	beq	v1,v0,1184 <_malloc_r+0x1f4>
    10d0:	00000000 	nop
    10d4:	8fc20010 	lw	v0,16(s8)
    10d8:	00000000 	nop
    10dc:	8c430004 	lw	v1,4(v0)
    10e0:	2402fffc 	li	v0,-4
    10e4:	00621024 	and	v0,v1,v0
    10e8:	afc20038 	sw	v0,56(s8)
    10ec:	8fc20010 	lw	v0,16(s8)
    10f0:	00000000 	nop
    10f4:	8c42000c 	lw	v0,12(v0)
    10f8:	00000000 	nop
    10fc:	afc2002c 	sw	v0,44(s8)
    1100:	8fc20010 	lw	v0,16(s8)
    1104:	00000000 	nop
    1108:	8c420008 	lw	v0,8(v0)
    110c:	00000000 	nop
    1110:	afc20028 	sw	v0,40(s8)
    1114:	8fc20028 	lw	v0,40(s8)
    1118:	8fc3002c 	lw	v1,44(s8)
    111c:	00000000 	nop
    1120:	ac43000c 	sw	v1,12(v0)
    1124:	8fc2002c 	lw	v0,44(s8)
    1128:	8fc30028 	lw	v1,40(s8)
    112c:	00000000 	nop
    1130:	ac430008 	sw	v1,8(v0)
    1134:	8fc30010 	lw	v1,16(s8)
    1138:	8fc20038 	lw	v0,56(s8)
    113c:	00000000 	nop
    1140:	00621021 	addu	v0,v1,v0
    1144:	8fc40010 	lw	a0,16(s8)
    1148:	8fc30038 	lw	v1,56(s8)
    114c:	00000000 	nop
    1150:	00831821 	addu	v1,a0,v1
    1154:	8c630004 	lw	v1,4(v1)
    1158:	00000000 	nop
    115c:	34630001 	ori	v1,v1,0x1
    1160:	ac430004 	sw	v1,4(v0)
    1164:	8fc40050 	lw	a0,80(s8)
    1168:	0c000a2f 	jal	28bc <__malloc_unlock>
    116c:	00000000 	nop
    1170:	8fc20010 	lw	v0,16(s8)
    1174:	00000000 	nop
    1178:	24420008 	addiu	v0,v0,8
    117c:	080007d4 	j	1f50 <_malloc_r+0xfc0>
    1180:	00000000 	nop
    1184:	8fc20014 	lw	v0,20(s8)
    1188:	00000000 	nop
    118c:	24420002 	addiu	v0,v0,2
    1190:	afc20014 	sw	v0,20(s8)
    1194:	0800050c 	j	1430 <_malloc_r+0x4a0>
    1198:	00000000 	nop
    119c:	8fc20034 	lw	v0,52(s8)
    11a0:	00000000 	nop
    11a4:	00021242 	srl	v0,v0,0x9
    11a8:	14400006 	bnez	v0,11c4 <_malloc_r+0x234>
    11ac:	00000000 	nop
    11b0:	8fc20034 	lw	v0,52(s8)
    11b4:	00000000 	nop
    11b8:	000210c2 	srl	v0,v0,0x3
    11bc:	080004ae 	j	12b8 <_malloc_r+0x328>
    11c0:	00000000 	nop
    11c4:	8fc20034 	lw	v0,52(s8)
    11c8:	00000000 	nop
    11cc:	00021242 	srl	v0,v0,0x9
    11d0:	2c420005 	sltiu	v0,v0,5
    11d4:	10400007 	beqz	v0,11f4 <_malloc_r+0x264>
    11d8:	00000000 	nop
    11dc:	8fc20034 	lw	v0,52(s8)
    11e0:	00000000 	nop
    11e4:	00021182 	srl	v0,v0,0x6
    11e8:	24420038 	addiu	v0,v0,56
    11ec:	080004ae 	j	12b8 <_malloc_r+0x328>
    11f0:	00000000 	nop
    11f4:	8fc20034 	lw	v0,52(s8)
    11f8:	00000000 	nop
    11fc:	00021242 	srl	v0,v0,0x9
    1200:	2c420015 	sltiu	v0,v0,21
    1204:	10400007 	beqz	v0,1224 <_malloc_r+0x294>
    1208:	00000000 	nop
    120c:	8fc20034 	lw	v0,52(s8)
    1210:	00000000 	nop
    1214:	00021242 	srl	v0,v0,0x9
    1218:	2442005b 	addiu	v0,v0,91
    121c:	080004ae 	j	12b8 <_malloc_r+0x328>
    1220:	00000000 	nop
    1224:	8fc20034 	lw	v0,52(s8)
    1228:	00000000 	nop
    122c:	00021242 	srl	v0,v0,0x9
    1230:	2c420055 	sltiu	v0,v0,85
    1234:	10400007 	beqz	v0,1254 <_malloc_r+0x2c4>
    1238:	00000000 	nop
    123c:	8fc20034 	lw	v0,52(s8)
    1240:	00000000 	nop
    1244:	00021302 	srl	v0,v0,0xc
    1248:	2442006e 	addiu	v0,v0,110
    124c:	080004ae 	j	12b8 <_malloc_r+0x328>
    1250:	00000000 	nop
    1254:	8fc20034 	lw	v0,52(s8)
    1258:	00000000 	nop
    125c:	00021242 	srl	v0,v0,0x9
    1260:	2c420155 	sltiu	v0,v0,341
    1264:	10400007 	beqz	v0,1284 <_malloc_r+0x2f4>
    1268:	00000000 	nop
    126c:	8fc20034 	lw	v0,52(s8)
    1270:	00000000 	nop
    1274:	000213c2 	srl	v0,v0,0xf
    1278:	24420077 	addiu	v0,v0,119
    127c:	080004ae 	j	12b8 <_malloc_r+0x328>
    1280:	00000000 	nop
    1284:	8fc20034 	lw	v0,52(s8)
    1288:	00000000 	nop
    128c:	00021242 	srl	v0,v0,0x9
    1290:	2c420555 	sltiu	v0,v0,1365
    1294:	10400007 	beqz	v0,12b4 <_malloc_r+0x324>
    1298:	00000000 	nop
    129c:	8fc20034 	lw	v0,52(s8)
    12a0:	00000000 	nop
    12a4:	00021482 	srl	v0,v0,0x12
    12a8:	2442007c 	addiu	v0,v0,124
    12ac:	080004ae 	j	12b8 <_malloc_r+0x328>
    12b0:	00000000 	nop
    12b4:	2402007e 	li	v0,126
    12b8:	afc20014 	sw	v0,20(s8)
    12bc:	8fc20014 	lw	v0,20(s8)
    12c0:	00000000 	nop
    12c4:	00021040 	sll	v0,v0,0x1
    12c8:	00021880 	sll	v1,v0,0x2
    12cc:	3c020000 	lui	v0,0x0
    12d0:	24427428 	addiu	v0,v0,29736
    12d4:	00621021 	addu	v0,v1,v0
    12d8:	afc20018 	sw	v0,24(s8)
    12dc:	8fc20018 	lw	v0,24(s8)
    12e0:	00000000 	nop
    12e4:	8c42000c 	lw	v0,12(v0)
    12e8:	00000000 	nop
    12ec:	afc20010 	sw	v0,16(s8)
    12f0:	08000503 	j	140c <_malloc_r+0x47c>
    12f4:	00000000 	nop
    12f8:	8fc20010 	lw	v0,16(s8)
    12fc:	00000000 	nop
    1300:	8c430004 	lw	v1,4(v0)
    1304:	2402fffc 	li	v0,-4
    1308:	00621024 	and	v0,v1,v0
    130c:	afc20038 	sw	v0,56(s8)
    1310:	8fc30038 	lw	v1,56(s8)
    1314:	8fc20034 	lw	v0,52(s8)
    1318:	00000000 	nop
    131c:	00621023 	subu	v0,v1,v0
    1320:	afc2001c 	sw	v0,28(s8)
    1324:	8fc2001c 	lw	v0,28(s8)
    1328:	00000000 	nop
    132c:	28420010 	slti	v0,v0,16
    1330:	14400007 	bnez	v0,1350 <_malloc_r+0x3c0>
    1334:	00000000 	nop
    1338:	8fc20014 	lw	v0,20(s8)
    133c:	00000000 	nop
    1340:	2442ffff 	addiu	v0,v0,-1
    1344:	afc20014 	sw	v0,20(s8)
    1348:	08000508 	j	1420 <_malloc_r+0x490>
    134c:	00000000 	nop
    1350:	8fc2001c 	lw	v0,28(s8)
    1354:	00000000 	nop
    1358:	04400027 	bltz	v0,13f8 <_malloc_r+0x468>
    135c:	00000000 	nop
    1360:	8fc20010 	lw	v0,16(s8)
    1364:	00000000 	nop
    1368:	8c42000c 	lw	v0,12(v0)
    136c:	00000000 	nop
    1370:	afc2002c 	sw	v0,44(s8)
    1374:	8fc20010 	lw	v0,16(s8)
    1378:	00000000 	nop
    137c:	8c420008 	lw	v0,8(v0)
    1380:	00000000 	nop
    1384:	afc20028 	sw	v0,40(s8)
    1388:	8fc20028 	lw	v0,40(s8)
    138c:	8fc3002c 	lw	v1,44(s8)
    1390:	00000000 	nop
    1394:	ac43000c 	sw	v1,12(v0)
    1398:	8fc2002c 	lw	v0,44(s8)
    139c:	8fc30028 	lw	v1,40(s8)
    13a0:	00000000 	nop
    13a4:	ac430008 	sw	v1,8(v0)
    13a8:	8fc30010 	lw	v1,16(s8)
    13ac:	8fc20038 	lw	v0,56(s8)
    13b0:	00000000 	nop
    13b4:	00621021 	addu	v0,v1,v0
    13b8:	8fc40010 	lw	a0,16(s8)
    13bc:	8fc30038 	lw	v1,56(s8)
    13c0:	00000000 	nop
    13c4:	00831821 	addu	v1,a0,v1
    13c8:	8c630004 	lw	v1,4(v1)
    13cc:	00000000 	nop
    13d0:	34630001 	ori	v1,v1,0x1
    13d4:	ac430004 	sw	v1,4(v0)
    13d8:	8fc40050 	lw	a0,80(s8)
    13dc:	0c000a2f 	jal	28bc <__malloc_unlock>
    13e0:	00000000 	nop
    13e4:	8fc20010 	lw	v0,16(s8)
    13e8:	00000000 	nop
    13ec:	24420008 	addiu	v0,v0,8
    13f0:	080007d4 	j	1f50 <_malloc_r+0xfc0>
    13f4:	00000000 	nop
    13f8:	8fc20010 	lw	v0,16(s8)
    13fc:	00000000 	nop
    1400:	8c42000c 	lw	v0,12(v0)
    1404:	00000000 	nop
    1408:	afc20010 	sw	v0,16(s8)
    140c:	8fc30010 	lw	v1,16(s8)
    1410:	8fc20018 	lw	v0,24(s8)
    1414:	00000000 	nop
    1418:	1462ffb7 	bne	v1,v0,12f8 <_malloc_r+0x368>
    141c:	00000000 	nop
    1420:	8fc20014 	lw	v0,20(s8)
    1424:	00000000 	nop
    1428:	24420001 	addiu	v0,v0,1
    142c:	afc20014 	sw	v0,20(s8)
    1430:	3c020000 	lui	v0,0x0
    1434:	24427430 	addiu	v0,v0,29744
    1438:	8c420008 	lw	v0,8(v0)
    143c:	00000000 	nop
    1440:	afc20010 	sw	v0,16(s8)
    1444:	8fc30010 	lw	v1,16(s8)
    1448:	3c020000 	lui	v0,0x0
    144c:	24427430 	addiu	v0,v0,29744
    1450:	10620139 	beq	v1,v0,1938 <_malloc_r+0x9a8>
    1454:	00000000 	nop
    1458:	8fc20010 	lw	v0,16(s8)
    145c:	00000000 	nop
    1460:	8c430004 	lw	v1,4(v0)
    1464:	2402fffc 	li	v0,-4
    1468:	00621024 	and	v0,v1,v0
    146c:	afc20038 	sw	v0,56(s8)
    1470:	8fc30038 	lw	v1,56(s8)
    1474:	8fc20034 	lw	v0,52(s8)
    1478:	00000000 	nop
    147c:	00621023 	subu	v0,v1,v0
    1480:	afc2001c 	sw	v0,28(s8)
    1484:	8fc2001c 	lw	v0,28(s8)
    1488:	00000000 	nop
    148c:	28420010 	slti	v0,v0,16
    1490:	14400036 	bnez	v0,156c <_malloc_r+0x5dc>
    1494:	00000000 	nop
    1498:	8fc30010 	lw	v1,16(s8)
    149c:	8fc20034 	lw	v0,52(s8)
    14a0:	00000000 	nop
    14a4:	00621021 	addu	v0,v1,v0
    14a8:	afc2003c 	sw	v0,60(s8)
    14ac:	8fc20034 	lw	v0,52(s8)
    14b0:	00000000 	nop
    14b4:	34430001 	ori	v1,v0,0x1
    14b8:	8fc20010 	lw	v0,16(s8)
    14bc:	00000000 	nop
    14c0:	ac430004 	sw	v1,4(v0)
    14c4:	3c020000 	lui	v0,0x0
    14c8:	24437430 	addiu	v1,v0,29744
    14cc:	3c020000 	lui	v0,0x0
    14d0:	24427430 	addiu	v0,v0,29744
    14d4:	8fc4003c 	lw	a0,60(s8)
    14d8:	00000000 	nop
    14dc:	ac44000c 	sw	a0,12(v0)
    14e0:	8c42000c 	lw	v0,12(v0)
    14e4:	00000000 	nop
    14e8:	ac620008 	sw	v0,8(v1)
    14ec:	8fc2003c 	lw	v0,60(s8)
    14f0:	3c030000 	lui	v1,0x0
    14f4:	24637430 	addiu	v1,v1,29744
    14f8:	ac43000c 	sw	v1,12(v0)
    14fc:	8fc2003c 	lw	v0,60(s8)
    1500:	00000000 	nop
    1504:	8c43000c 	lw	v1,12(v0)
    1508:	8fc2003c 	lw	v0,60(s8)
    150c:	00000000 	nop
    1510:	ac430008 	sw	v1,8(v0)
    1514:	8fc2001c 	lw	v0,28(s8)
    1518:	00000000 	nop
    151c:	34420001 	ori	v0,v0,0x1
    1520:	00401821 	move	v1,v0
    1524:	8fc2003c 	lw	v0,60(s8)
    1528:	00000000 	nop
    152c:	ac430004 	sw	v1,4(v0)
    1530:	8fc2001c 	lw	v0,28(s8)
    1534:	8fc3003c 	lw	v1,60(s8)
    1538:	00000000 	nop
    153c:	00621021 	addu	v0,v1,v0
    1540:	8fc3001c 	lw	v1,28(s8)
    1544:	00000000 	nop
    1548:	ac430000 	sw	v1,0(v0)
    154c:	8fc40050 	lw	a0,80(s8)
    1550:	0c000a2f 	jal	28bc <__malloc_unlock>
    1554:	00000000 	nop
    1558:	8fc20010 	lw	v0,16(s8)
    155c:	00000000 	nop
    1560:	24420008 	addiu	v0,v0,8
    1564:	080007d4 	j	1f50 <_malloc_r+0xfc0>
    1568:	00000000 	nop
    156c:	3c020000 	lui	v0,0x0
    1570:	24437430 	addiu	v1,v0,29744
    1574:	3c020000 	lui	v0,0x0
    1578:	24427430 	addiu	v0,v0,29744
    157c:	3c040000 	lui	a0,0x0
    1580:	24847430 	addiu	a0,a0,29744
    1584:	ac44000c 	sw	a0,12(v0)
    1588:	8c42000c 	lw	v0,12(v0)
    158c:	00000000 	nop
    1590:	ac620008 	sw	v0,8(v1)
    1594:	8fc2001c 	lw	v0,28(s8)
    1598:	00000000 	nop
    159c:	04400015 	bltz	v0,15f4 <_malloc_r+0x664>
    15a0:	00000000 	nop
    15a4:	8fc30010 	lw	v1,16(s8)
    15a8:	8fc20038 	lw	v0,56(s8)
    15ac:	00000000 	nop
    15b0:	00621021 	addu	v0,v1,v0
    15b4:	8fc40010 	lw	a0,16(s8)
    15b8:	8fc30038 	lw	v1,56(s8)
    15bc:	00000000 	nop
    15c0:	00831821 	addu	v1,a0,v1
    15c4:	8c630004 	lw	v1,4(v1)
    15c8:	00000000 	nop
    15cc:	34630001 	ori	v1,v1,0x1
    15d0:	ac430004 	sw	v1,4(v0)
    15d4:	8fc40050 	lw	a0,80(s8)
    15d8:	0c000a2f 	jal	28bc <__malloc_unlock>
    15dc:	00000000 	nop
    15e0:	8fc20010 	lw	v0,16(s8)
    15e4:	00000000 	nop
    15e8:	24420008 	addiu	v0,v0,8
    15ec:	080007d4 	j	1f50 <_malloc_r+0xfc0>
    15f0:	00000000 	nop
    15f4:	8fc20038 	lw	v0,56(s8)
    15f8:	00000000 	nop
    15fc:	2c420200 	sltiu	v0,v0,512
    1600:	10400035 	beqz	v0,16d8 <_malloc_r+0x748>
    1604:	00000000 	nop
    1608:	8fc20038 	lw	v0,56(s8)
    160c:	00000000 	nop
    1610:	000210c2 	srl	v0,v0,0x3
    1614:	afc20040 	sw	v0,64(s8)
    1618:	3c020000 	lui	v0,0x0
    161c:	24437428 	addiu	v1,v0,29736
    1620:	3c020000 	lui	v0,0x0
    1624:	24427428 	addiu	v0,v0,29736
    1628:	8c440004 	lw	a0,4(v0)
    162c:	8fc20040 	lw	v0,64(s8)
    1630:	00000000 	nop
    1634:	04410002 	bgez	v0,1640 <_malloc_r+0x6b0>
    1638:	00000000 	nop
    163c:	24420003 	addiu	v0,v0,3
    1640:	00021083 	sra	v0,v0,0x2
    1644:	24050001 	li	a1,1
    1648:	00451004 	sllv	v0,a1,v0
    164c:	00821025 	or	v0,a0,v0
    1650:	ac620004 	sw	v0,4(v1)
    1654:	8fc20040 	lw	v0,64(s8)
    1658:	00000000 	nop
    165c:	00021040 	sll	v0,v0,0x1
    1660:	00021880 	sll	v1,v0,0x2
    1664:	3c020000 	lui	v0,0x0
    1668:	24427428 	addiu	v0,v0,29736
    166c:	00621021 	addu	v0,v1,v0
    1670:	afc2002c 	sw	v0,44(s8)
    1674:	8fc2002c 	lw	v0,44(s8)
    1678:	00000000 	nop
    167c:	8c420008 	lw	v0,8(v0)
    1680:	00000000 	nop
    1684:	afc20028 	sw	v0,40(s8)
    1688:	8fc20010 	lw	v0,16(s8)
    168c:	8fc3002c 	lw	v1,44(s8)
    1690:	00000000 	nop
    1694:	ac43000c 	sw	v1,12(v0)
    1698:	8fc20010 	lw	v0,16(s8)
    169c:	8fc30028 	lw	v1,40(s8)
    16a0:	00000000 	nop
    16a4:	ac430008 	sw	v1,8(v0)
    16a8:	8fc2002c 	lw	v0,44(s8)
    16ac:	8fc30010 	lw	v1,16(s8)
    16b0:	00000000 	nop
    16b4:	ac430008 	sw	v1,8(v0)
    16b8:	8fc2002c 	lw	v0,44(s8)
    16bc:	00000000 	nop
    16c0:	8c430008 	lw	v1,8(v0)
    16c4:	8fc20028 	lw	v0,40(s8)
    16c8:	00000000 	nop
    16cc:	ac43000c 	sw	v1,12(v0)
    16d0:	0800064e 	j	1938 <_malloc_r+0x9a8>
    16d4:	00000000 	nop
    16d8:	8fc20038 	lw	v0,56(s8)
    16dc:	00000000 	nop
    16e0:	00021242 	srl	v0,v0,0x9
    16e4:	14400006 	bnez	v0,1700 <_malloc_r+0x770>
    16e8:	00000000 	nop
    16ec:	8fc20038 	lw	v0,56(s8)
    16f0:	00000000 	nop
    16f4:	000210c2 	srl	v0,v0,0x3
    16f8:	080005fd 	j	17f4 <_malloc_r+0x864>
    16fc:	00000000 	nop
    1700:	8fc20038 	lw	v0,56(s8)
    1704:	00000000 	nop
    1708:	00021242 	srl	v0,v0,0x9
    170c:	2c420005 	sltiu	v0,v0,5
    1710:	10400007 	beqz	v0,1730 <_malloc_r+0x7a0>
    1714:	00000000 	nop
    1718:	8fc20038 	lw	v0,56(s8)
    171c:	00000000 	nop
    1720:	00021182 	srl	v0,v0,0x6
    1724:	24420038 	addiu	v0,v0,56
    1728:	080005fd 	j	17f4 <_malloc_r+0x864>
    172c:	00000000 	nop
    1730:	8fc20038 	lw	v0,56(s8)
    1734:	00000000 	nop
    1738:	00021242 	srl	v0,v0,0x9
    173c:	2c420015 	sltiu	v0,v0,21
    1740:	10400007 	beqz	v0,1760 <_malloc_r+0x7d0>
    1744:	00000000 	nop
    1748:	8fc20038 	lw	v0,56(s8)
    174c:	00000000 	nop
    1750:	00021242 	srl	v0,v0,0x9
    1754:	2442005b 	addiu	v0,v0,91
    1758:	080005fd 	j	17f4 <_malloc_r+0x864>
    175c:	00000000 	nop
    1760:	8fc20038 	lw	v0,56(s8)
    1764:	00000000 	nop
    1768:	00021242 	srl	v0,v0,0x9
    176c:	2c420055 	sltiu	v0,v0,85
    1770:	10400007 	beqz	v0,1790 <_malloc_r+0x800>
    1774:	00000000 	nop
    1778:	8fc20038 	lw	v0,56(s8)
    177c:	00000000 	nop
    1780:	00021302 	srl	v0,v0,0xc
    1784:	2442006e 	addiu	v0,v0,110
    1788:	080005fd 	j	17f4 <_malloc_r+0x864>
    178c:	00000000 	nop
    1790:	8fc20038 	lw	v0,56(s8)
    1794:	00000000 	nop
    1798:	00021242 	srl	v0,v0,0x9
    179c:	2c420155 	sltiu	v0,v0,341
    17a0:	10400007 	beqz	v0,17c0 <_malloc_r+0x830>
    17a4:	00000000 	nop
    17a8:	8fc20038 	lw	v0,56(s8)
    17ac:	00000000 	nop
    17b0:	000213c2 	srl	v0,v0,0xf
    17b4:	24420077 	addiu	v0,v0,119
    17b8:	080005fd 	j	17f4 <_malloc_r+0x864>
    17bc:	00000000 	nop
    17c0:	8fc20038 	lw	v0,56(s8)
    17c4:	00000000 	nop
    17c8:	00021242 	srl	v0,v0,0x9
    17cc:	2c420555 	sltiu	v0,v0,1365
    17d0:	10400007 	beqz	v0,17f0 <_malloc_r+0x860>
    17d4:	00000000 	nop
    17d8:	8fc20038 	lw	v0,56(s8)
    17dc:	00000000 	nop
    17e0:	00021482 	srl	v0,v0,0x12
    17e4:	2442007c 	addiu	v0,v0,124
    17e8:	080005fd 	j	17f4 <_malloc_r+0x864>
    17ec:	00000000 	nop
    17f0:	2402007e 	li	v0,126
    17f4:	afc20040 	sw	v0,64(s8)
    17f8:	8fc20040 	lw	v0,64(s8)
    17fc:	00000000 	nop
    1800:	00021040 	sll	v0,v0,0x1
    1804:	00021880 	sll	v1,v0,0x2
    1808:	3c020000 	lui	v0,0x0
    180c:	24427428 	addiu	v0,v0,29736
    1810:	00621021 	addu	v0,v1,v0
    1814:	afc2002c 	sw	v0,44(s8)
    1818:	8fc2002c 	lw	v0,44(s8)
    181c:	00000000 	nop
    1820:	8c420008 	lw	v0,8(v0)
    1824:	00000000 	nop
    1828:	afc20028 	sw	v0,40(s8)
    182c:	8fc30028 	lw	v1,40(s8)
    1830:	8fc2002c 	lw	v0,44(s8)
    1834:	00000000 	nop
    1838:	14620012 	bne	v1,v0,1884 <_malloc_r+0x8f4>
    183c:	00000000 	nop
    1840:	3c020000 	lui	v0,0x0
    1844:	24437428 	addiu	v1,v0,29736
    1848:	3c020000 	lui	v0,0x0
    184c:	24427428 	addiu	v0,v0,29736
    1850:	8c440004 	lw	a0,4(v0)
    1854:	8fc20040 	lw	v0,64(s8)
    1858:	00000000 	nop
    185c:	04410002 	bgez	v0,1868 <_malloc_r+0x8d8>
    1860:	00000000 	nop
    1864:	24420003 	addiu	v0,v0,3
    1868:	00021083 	sra	v0,v0,0x2
    186c:	24050001 	li	a1,1
    1870:	00451004 	sllv	v0,a1,v0
    1874:	00821025 	or	v0,a0,v0
    1878:	ac620004 	sw	v0,4(v1)
    187c:	0800063c 	j	18f0 <_malloc_r+0x960>
    1880:	00000000 	nop
    1884:	08000628 	j	18a0 <_malloc_r+0x910>
    1888:	00000000 	nop
    188c:	8fc20028 	lw	v0,40(s8)
    1890:	00000000 	nop
    1894:	8c420008 	lw	v0,8(v0)
    1898:	00000000 	nop
    189c:	afc20028 	sw	v0,40(s8)
    18a0:	8fc30028 	lw	v1,40(s8)
    18a4:	8fc2002c 	lw	v0,44(s8)
    18a8:	00000000 	nop
    18ac:	1062000b 	beq	v1,v0,18dc <_malloc_r+0x94c>
    18b0:	00000000 	nop
    18b4:	8fc20028 	lw	v0,40(s8)
    18b8:	00000000 	nop
    18bc:	8c430004 	lw	v1,4(v0)
    18c0:	2402fffc 	li	v0,-4
    18c4:	00621824 	and	v1,v1,v0
    18c8:	8fc20038 	lw	v0,56(s8)
    18cc:	00000000 	nop
    18d0:	0043102b 	sltu	v0,v0,v1
    18d4:	1440ffed 	bnez	v0,188c <_malloc_r+0x8fc>
    18d8:	00000000 	nop
    18dc:	8fc20028 	lw	v0,40(s8)
    18e0:	00000000 	nop
    18e4:	8c42000c 	lw	v0,12(v0)
    18e8:	00000000 	nop
    18ec:	afc2002c 	sw	v0,44(s8)
    18f0:	8fc20010 	lw	v0,16(s8)
    18f4:	8fc3002c 	lw	v1,44(s8)
    18f8:	00000000 	nop
    18fc:	ac43000c 	sw	v1,12(v0)
    1900:	8fc20010 	lw	v0,16(s8)
    1904:	8fc30028 	lw	v1,40(s8)
    1908:	00000000 	nop
    190c:	ac430008 	sw	v1,8(v0)
    1910:	8fc2002c 	lw	v0,44(s8)
    1914:	8fc30010 	lw	v1,16(s8)
    1918:	00000000 	nop
    191c:	ac430008 	sw	v1,8(v0)
    1920:	8fc2002c 	lw	v0,44(s8)
    1924:	00000000 	nop
    1928:	8c430008 	lw	v1,8(v0)
    192c:	8fc20028 	lw	v0,40(s8)
    1930:	00000000 	nop
    1934:	ac43000c 	sw	v1,12(v0)
    1938:	8fc20014 	lw	v0,20(s8)
    193c:	00000000 	nop
    1940:	04410002 	bgez	v0,194c <_malloc_r+0x9bc>
    1944:	00000000 	nop
    1948:	24420003 	addiu	v0,v0,3
    194c:	00021083 	sra	v0,v0,0x2
    1950:	24030001 	li	v1,1
    1954:	00431004 	sllv	v0,v1,v0
    1958:	afc20020 	sw	v0,32(s8)
    195c:	3c020000 	lui	v0,0x0
    1960:	24427428 	addiu	v0,v0,29736
    1964:	8c420004 	lw	v0,4(v0)
    1968:	8fc30020 	lw	v1,32(s8)
    196c:	00000000 	nop
    1970:	0043102b 	sltu	v0,v0,v1
    1974:	14400115 	bnez	v0,1dcc <_malloc_r+0xe3c>
    1978:	00000000 	nop
    197c:	3c020000 	lui	v0,0x0
    1980:	24427428 	addiu	v0,v0,29736
    1984:	8c430004 	lw	v1,4(v0)
    1988:	8fc20020 	lw	v0,32(s8)
    198c:	00000000 	nop
    1990:	00621024 	and	v0,v1,v0
    1994:	1440001c 	bnez	v0,1a08 <_malloc_r+0xa78>
    1998:	00000000 	nop
    199c:	8fc30014 	lw	v1,20(s8)
    19a0:	2402fffc 	li	v0,-4
    19a4:	00621024 	and	v0,v1,v0
    19a8:	24420004 	addiu	v0,v0,4
    19ac:	afc20014 	sw	v0,20(s8)
    19b0:	8fc20020 	lw	v0,32(s8)
    19b4:	00000000 	nop
    19b8:	00021040 	sll	v0,v0,0x1
    19bc:	afc20020 	sw	v0,32(s8)
    19c0:	0800067a 	j	19e8 <_malloc_r+0xa58>
    19c4:	00000000 	nop
    19c8:	8fc20014 	lw	v0,20(s8)
    19cc:	00000000 	nop
    19d0:	24420004 	addiu	v0,v0,4
    19d4:	afc20014 	sw	v0,20(s8)
    19d8:	8fc20020 	lw	v0,32(s8)
    19dc:	00000000 	nop
    19e0:	00021040 	sll	v0,v0,0x1
    19e4:	afc20020 	sw	v0,32(s8)
    19e8:	3c020000 	lui	v0,0x0
    19ec:	24427428 	addiu	v0,v0,29736
    19f0:	8c430004 	lw	v1,4(v0)
    19f4:	8fc20020 	lw	v0,32(s8)
    19f8:	00000000 	nop
    19fc:	00621024 	and	v0,v1,v0
    1a00:	1040fff1 	beqz	v0,19c8 <_malloc_r+0xa38>
    1a04:	00000000 	nop
    1a08:	8fc20014 	lw	v0,20(s8)
    1a0c:	00000000 	nop
    1a10:	afc20024 	sw	v0,36(s8)
    1a14:	8fc20014 	lw	v0,20(s8)
    1a18:	00000000 	nop
    1a1c:	00021040 	sll	v0,v0,0x1
    1a20:	00021880 	sll	v1,v0,0x2
    1a24:	3c020000 	lui	v0,0x0
    1a28:	24427428 	addiu	v0,v0,29736
    1a2c:	00621021 	addu	v0,v1,v0
    1a30:	afc20018 	sw	v0,24(s8)
    1a34:	8fc20018 	lw	v0,24(s8)
    1a38:	00000000 	nop
    1a3c:	afc20030 	sw	v0,48(s8)
    1a40:	8fc20018 	lw	v0,24(s8)
    1a44:	00000000 	nop
    1a48:	8c42000c 	lw	v0,12(v0)
    1a4c:	00000000 	nop
    1a50:	afc20010 	sw	v0,16(s8)
    1a54:	0800071d 	j	1c74 <_malloc_r+0xce4>
    1a58:	00000000 	nop
    1a5c:	8fc20010 	lw	v0,16(s8)
    1a60:	00000000 	nop
    1a64:	8c430004 	lw	v1,4(v0)
    1a68:	2402fffc 	li	v0,-4
    1a6c:	00621024 	and	v0,v1,v0
    1a70:	afc20038 	sw	v0,56(s8)
    1a74:	8fc30038 	lw	v1,56(s8)
    1a78:	8fc20034 	lw	v0,52(s8)
    1a7c:	00000000 	nop
    1a80:	00621023 	subu	v0,v1,v0
    1a84:	afc2001c 	sw	v0,28(s8)
    1a88:	8fc2001c 	lw	v0,28(s8)
    1a8c:	00000000 	nop
    1a90:	28420010 	slti	v0,v0,16
    1a94:	14400048 	bnez	v0,1bb8 <_malloc_r+0xc28>
    1a98:	00000000 	nop
    1a9c:	8fc30010 	lw	v1,16(s8)
    1aa0:	8fc20034 	lw	v0,52(s8)
    1aa4:	00000000 	nop
    1aa8:	00621021 	addu	v0,v1,v0
    1aac:	afc2003c 	sw	v0,60(s8)
    1ab0:	8fc20034 	lw	v0,52(s8)
    1ab4:	00000000 	nop
    1ab8:	34430001 	ori	v1,v0,0x1
    1abc:	8fc20010 	lw	v0,16(s8)
    1ac0:	00000000 	nop
    1ac4:	ac430004 	sw	v1,4(v0)
    1ac8:	8fc20010 	lw	v0,16(s8)
    1acc:	00000000 	nop
    1ad0:	8c42000c 	lw	v0,12(v0)
    1ad4:	00000000 	nop
    1ad8:	afc2002c 	sw	v0,44(s8)
    1adc:	8fc20010 	lw	v0,16(s8)
    1ae0:	00000000 	nop
    1ae4:	8c420008 	lw	v0,8(v0)
    1ae8:	00000000 	nop
    1aec:	afc20028 	sw	v0,40(s8)
    1af0:	8fc20028 	lw	v0,40(s8)
    1af4:	8fc3002c 	lw	v1,44(s8)
    1af8:	00000000 	nop
    1afc:	ac43000c 	sw	v1,12(v0)
    1b00:	8fc2002c 	lw	v0,44(s8)
    1b04:	8fc30028 	lw	v1,40(s8)
    1b08:	00000000 	nop
    1b0c:	ac430008 	sw	v1,8(v0)
    1b10:	3c020000 	lui	v0,0x0
    1b14:	24437430 	addiu	v1,v0,29744
    1b18:	3c020000 	lui	v0,0x0
    1b1c:	24427430 	addiu	v0,v0,29744
    1b20:	8fc4003c 	lw	a0,60(s8)
    1b24:	00000000 	nop
    1b28:	ac44000c 	sw	a0,12(v0)
    1b2c:	8c42000c 	lw	v0,12(v0)
    1b30:	00000000 	nop
    1b34:	ac620008 	sw	v0,8(v1)
    1b38:	8fc2003c 	lw	v0,60(s8)
    1b3c:	3c030000 	lui	v1,0x0
    1b40:	24637430 	addiu	v1,v1,29744
    1b44:	ac43000c 	sw	v1,12(v0)
    1b48:	8fc2003c 	lw	v0,60(s8)
    1b4c:	00000000 	nop
    1b50:	8c43000c 	lw	v1,12(v0)
    1b54:	8fc2003c 	lw	v0,60(s8)
    1b58:	00000000 	nop
    1b5c:	ac430008 	sw	v1,8(v0)
    1b60:	8fc2001c 	lw	v0,28(s8)
    1b64:	00000000 	nop
    1b68:	34420001 	ori	v0,v0,0x1
    1b6c:	00401821 	move	v1,v0
    1b70:	8fc2003c 	lw	v0,60(s8)
    1b74:	00000000 	nop
    1b78:	ac430004 	sw	v1,4(v0)
    1b7c:	8fc2001c 	lw	v0,28(s8)
    1b80:	8fc3003c 	lw	v1,60(s8)
    1b84:	00000000 	nop
    1b88:	00621021 	addu	v0,v1,v0
    1b8c:	8fc3001c 	lw	v1,28(s8)
    1b90:	00000000 	nop
    1b94:	ac430000 	sw	v1,0(v0)
    1b98:	8fc40050 	lw	a0,80(s8)
    1b9c:	0c000a2f 	jal	28bc <__malloc_unlock>
    1ba0:	00000000 	nop
    1ba4:	8fc20010 	lw	v0,16(s8)
    1ba8:	00000000 	nop
    1bac:	24420008 	addiu	v0,v0,8
    1bb0:	080007d4 	j	1f50 <_malloc_r+0xfc0>
    1bb4:	00000000 	nop
    1bb8:	8fc2001c 	lw	v0,28(s8)
    1bbc:	00000000 	nop
    1bc0:	04400027 	bltz	v0,1c60 <_malloc_r+0xcd0>
    1bc4:	00000000 	nop
    1bc8:	8fc30010 	lw	v1,16(s8)
    1bcc:	8fc20038 	lw	v0,56(s8)
    1bd0:	00000000 	nop
    1bd4:	00621021 	addu	v0,v1,v0
    1bd8:	8fc40010 	lw	a0,16(s8)
    1bdc:	8fc30038 	lw	v1,56(s8)
    1be0:	00000000 	nop
    1be4:	00831821 	addu	v1,a0,v1
    1be8:	8c630004 	lw	v1,4(v1)
    1bec:	00000000 	nop
    1bf0:	34630001 	ori	v1,v1,0x1
    1bf4:	ac430004 	sw	v1,4(v0)
    1bf8:	8fc20010 	lw	v0,16(s8)
    1bfc:	00000000 	nop
    1c00:	8c42000c 	lw	v0,12(v0)
    1c04:	00000000 	nop
    1c08:	afc2002c 	sw	v0,44(s8)
    1c0c:	8fc20010 	lw	v0,16(s8)
    1c10:	00000000 	nop
    1c14:	8c420008 	lw	v0,8(v0)
    1c18:	00000000 	nop
    1c1c:	afc20028 	sw	v0,40(s8)
    1c20:	8fc20028 	lw	v0,40(s8)
    1c24:	8fc3002c 	lw	v1,44(s8)
    1c28:	00000000 	nop
    1c2c:	ac43000c 	sw	v1,12(v0)
    1c30:	8fc2002c 	lw	v0,44(s8)
    1c34:	8fc30028 	lw	v1,40(s8)
    1c38:	00000000 	nop
    1c3c:	ac430008 	sw	v1,8(v0)
    1c40:	8fc40050 	lw	a0,80(s8)
    1c44:	0c000a2f 	jal	28bc <__malloc_unlock>
    1c48:	00000000 	nop
    1c4c:	8fc20010 	lw	v0,16(s8)
    1c50:	00000000 	nop
    1c54:	24420008 	addiu	v0,v0,8
    1c58:	080007d4 	j	1f50 <_malloc_r+0xfc0>
    1c5c:	00000000 	nop
    1c60:	8fc20010 	lw	v0,16(s8)
    1c64:	00000000 	nop
    1c68:	8c42000c 	lw	v0,12(v0)
    1c6c:	00000000 	nop
    1c70:	afc20010 	sw	v0,16(s8)
    1c74:	8fc30010 	lw	v1,16(s8)
    1c78:	8fc20018 	lw	v0,24(s8)
    1c7c:	00000000 	nop
    1c80:	1462ff76 	bne	v1,v0,1a5c <_malloc_r+0xacc>
    1c84:	00000000 	nop
    1c88:	8fc20018 	lw	v0,24(s8)
    1c8c:	00000000 	nop
    1c90:	24420008 	addiu	v0,v0,8
    1c94:	afc20018 	sw	v0,24(s8)
    1c98:	8fc20014 	lw	v0,20(s8)
    1c9c:	00000000 	nop
    1ca0:	24420001 	addiu	v0,v0,1
    1ca4:	afc20014 	sw	v0,20(s8)
    1ca8:	8fc20014 	lw	v0,20(s8)
    1cac:	00000000 	nop
    1cb0:	30420003 	andi	v0,v0,0x3
    1cb4:	1440ff62 	bnez	v0,1a40 <_malloc_r+0xab0>
    1cb8:	00000000 	nop
    1cbc:	8fc20024 	lw	v0,36(s8)
    1cc0:	00000000 	nop
    1cc4:	30420003 	andi	v0,v0,0x3
    1cc8:	1440000d 	bnez	v0,1d00 <_malloc_r+0xd70>
    1ccc:	00000000 	nop
    1cd0:	3c020000 	lui	v0,0x0
    1cd4:	24427428 	addiu	v0,v0,29736
    1cd8:	3c030000 	lui	v1,0x0
    1cdc:	24637428 	addiu	v1,v1,29736
    1ce0:	8c640004 	lw	a0,4(v1)
    1ce4:	8fc30020 	lw	v1,32(s8)
    1ce8:	00000000 	nop
    1cec:	00031827 	nor	v1,zero,v1
    1cf0:	00831824 	and	v1,a0,v1
    1cf4:	ac430004 	sw	v1,4(v0)
    1cf8:	0800074f 	j	1d3c <_malloc_r+0xdac>
    1cfc:	00000000 	nop
    1d00:	8fc20024 	lw	v0,36(s8)
    1d04:	00000000 	nop
    1d08:	2442ffff 	addiu	v0,v0,-1
    1d0c:	afc20024 	sw	v0,36(s8)
    1d10:	8fc20030 	lw	v0,48(s8)
    1d14:	00000000 	nop
    1d18:	2442fff8 	addiu	v0,v0,-8
    1d1c:	afc20030 	sw	v0,48(s8)
    1d20:	8fc20030 	lw	v0,48(s8)
    1d24:	00000000 	nop
    1d28:	8c430008 	lw	v1,8(v0)
    1d2c:	8fc20030 	lw	v0,48(s8)
    1d30:	00000000 	nop
    1d34:	1062ffe1 	beq	v1,v0,1cbc <_malloc_r+0xd2c>
    1d38:	00000000 	nop
    1d3c:	8fc20020 	lw	v0,32(s8)
    1d40:	00000000 	nop
    1d44:	00021040 	sll	v0,v0,0x1
    1d48:	afc20020 	sw	v0,32(s8)
    1d4c:	3c020000 	lui	v0,0x0
    1d50:	24427428 	addiu	v0,v0,29736
    1d54:	8c420004 	lw	v0,4(v0)
    1d58:	8fc30020 	lw	v1,32(s8)
    1d5c:	00000000 	nop
    1d60:	0043102b 	sltu	v0,v0,v1
    1d64:	14400019 	bnez	v0,1dcc <_malloc_r+0xe3c>
    1d68:	00000000 	nop
    1d6c:	8fc20020 	lw	v0,32(s8)
    1d70:	00000000 	nop
    1d74:	10400015 	beqz	v0,1dcc <_malloc_r+0xe3c>
    1d78:	00000000 	nop
    1d7c:	08000769 	j	1da4 <_malloc_r+0xe14>
    1d80:	00000000 	nop
    1d84:	8fc20014 	lw	v0,20(s8)
    1d88:	00000000 	nop
    1d8c:	24420004 	addiu	v0,v0,4
    1d90:	afc20014 	sw	v0,20(s8)
    1d94:	8fc20020 	lw	v0,32(s8)
    1d98:	00000000 	nop
    1d9c:	00021040 	sll	v0,v0,0x1
    1da0:	afc20020 	sw	v0,32(s8)
    1da4:	3c020000 	lui	v0,0x0
    1da8:	24427428 	addiu	v0,v0,29736
    1dac:	8c430004 	lw	v1,4(v0)
    1db0:	8fc20020 	lw	v0,32(s8)
    1db4:	00000000 	nop
    1db8:	00621024 	and	v0,v1,v0
    1dbc:	1040fff1 	beqz	v0,1d84 <_malloc_r+0xdf4>
    1dc0:	00000000 	nop
    1dc4:	08000682 	j	1a08 <_malloc_r+0xa78>
    1dc8:	00000000 	nop
    1dcc:	3c020000 	lui	v0,0x0
    1dd0:	24427428 	addiu	v0,v0,29736
    1dd4:	8c420008 	lw	v0,8(v0)
    1dd8:	00000000 	nop
    1ddc:	8c430004 	lw	v1,4(v0)
    1de0:	2402fffc 	li	v0,-4
    1de4:	00621824 	and	v1,v1,v0
    1de8:	8fc20034 	lw	v0,52(s8)
    1dec:	00000000 	nop
    1df0:	00621023 	subu	v0,v1,v0
    1df4:	afc2001c 	sw	v0,28(s8)
    1df8:	3c020000 	lui	v0,0x0
    1dfc:	24427428 	addiu	v0,v0,29736
    1e00:	8c420008 	lw	v0,8(v0)
    1e04:	00000000 	nop
    1e08:	8c430004 	lw	v1,4(v0)
    1e0c:	2402fffc 	li	v0,-4
    1e10:	00621824 	and	v1,v1,v0
    1e14:	8fc20034 	lw	v0,52(s8)
    1e18:	00000000 	nop
    1e1c:	0062102b 	sltu	v0,v1,v0
    1e20:	14400006 	bnez	v0,1e3c <_malloc_r+0xeac>
    1e24:	00000000 	nop
    1e28:	8fc2001c 	lw	v0,28(s8)
    1e2c:	00000000 	nop
    1e30:	28420010 	slti	v0,v0,16
    1e34:	10400027 	beqz	v0,1ed4 <_malloc_r+0xf44>
    1e38:	00000000 	nop
    1e3c:	8fc40050 	lw	a0,80(s8)
    1e40:	8fc50034 	lw	a1,52(s8)
    1e44:	0c0002b8 	jal	ae0 <malloc_extend_top>
    1e48:	00000000 	nop
    1e4c:	3c020000 	lui	v0,0x0
    1e50:	24427428 	addiu	v0,v0,29736
    1e54:	8c420008 	lw	v0,8(v0)
    1e58:	00000000 	nop
    1e5c:	8c430004 	lw	v1,4(v0)
    1e60:	2402fffc 	li	v0,-4
    1e64:	00621824 	and	v1,v1,v0
    1e68:	8fc20034 	lw	v0,52(s8)
    1e6c:	00000000 	nop
    1e70:	00621023 	subu	v0,v1,v0
    1e74:	afc2001c 	sw	v0,28(s8)
    1e78:	3c020000 	lui	v0,0x0
    1e7c:	24427428 	addiu	v0,v0,29736
    1e80:	8c420008 	lw	v0,8(v0)
    1e84:	00000000 	nop
    1e88:	8c430004 	lw	v1,4(v0)
    1e8c:	2402fffc 	li	v0,-4
    1e90:	00621824 	and	v1,v1,v0
    1e94:	8fc20034 	lw	v0,52(s8)
    1e98:	00000000 	nop
    1e9c:	0062102b 	sltu	v0,v1,v0
    1ea0:	14400006 	bnez	v0,1ebc <_malloc_r+0xf2c>
    1ea4:	00000000 	nop
    1ea8:	8fc2001c 	lw	v0,28(s8)
    1eac:	00000000 	nop
    1eb0:	28420010 	slti	v0,v0,16
    1eb4:	10400007 	beqz	v0,1ed4 <_malloc_r+0xf44>
    1eb8:	00000000 	nop
    1ebc:	8fc40050 	lw	a0,80(s8)
    1ec0:	0c000a2f 	jal	28bc <__malloc_unlock>
    1ec4:	00000000 	nop
    1ec8:	00001021 	move	v0,zero
    1ecc:	080007d4 	j	1f50 <_malloc_r+0xfc0>
    1ed0:	00000000 	nop
    1ed4:	3c020000 	lui	v0,0x0
    1ed8:	24427428 	addiu	v0,v0,29736
    1edc:	8c420008 	lw	v0,8(v0)
    1ee0:	00000000 	nop
    1ee4:	afc20010 	sw	v0,16(s8)
    1ee8:	8fc20034 	lw	v0,52(s8)
    1eec:	00000000 	nop
    1ef0:	34430001 	ori	v1,v0,0x1
    1ef4:	8fc20010 	lw	v0,16(s8)
    1ef8:	00000000 	nop
    1efc:	ac430004 	sw	v1,4(v0)
    1f00:	3c020000 	lui	v0,0x0
    1f04:	24427428 	addiu	v0,v0,29736
    1f08:	8fc40010 	lw	a0,16(s8)
    1f0c:	8fc30034 	lw	v1,52(s8)
    1f10:	00000000 	nop
    1f14:	00831821 	addu	v1,a0,v1
    1f18:	ac430008 	sw	v1,8(v0)
    1f1c:	3c020000 	lui	v0,0x0
    1f20:	24427428 	addiu	v0,v0,29736
    1f24:	8c420008 	lw	v0,8(v0)
    1f28:	8fc3001c 	lw	v1,28(s8)
    1f2c:	00000000 	nop
    1f30:	34630001 	ori	v1,v1,0x1
    1f34:	ac430004 	sw	v1,4(v0)
    1f38:	8fc40050 	lw	a0,80(s8)
    1f3c:	0c000a2f 	jal	28bc <__malloc_unlock>
    1f40:	00000000 	nop
    1f44:	8fc20010 	lw	v0,16(s8)
    1f48:	00000000 	nop
    1f4c:	24420008 	addiu	v0,v0,8
    1f50:	03c0e821 	move	sp,s8
    1f54:	8fbf004c 	lw	ra,76(sp)
    1f58:	8fbe0048 	lw	s8,72(sp)
    1f5c:	27bd0050 	addiu	sp,sp,80
    1f60:	03e00008 	jr	ra
    1f64:	00000000 	nop

00001f68 <memchr>:
    1f68:	27bdffe0 	addiu	sp,sp,-32
    1f6c:	afbe001c 	sw	s8,28(sp)
    1f70:	03a0f021 	move	s8,sp
    1f74:	afc40020 	sw	a0,32(s8)
    1f78:	afc50024 	sw	a1,36(s8)
    1f7c:	afc60028 	sw	a2,40(s8)
    1f80:	8fc20020 	lw	v0,32(s8)
    1f84:	00000000 	nop
    1f88:	afc20000 	sw	v0,0(s8)
    1f8c:	8fc20024 	lw	v0,36(s8)
    1f90:	00000000 	nop
    1f94:	a3c20010 	sb	v0,16(s8)
    1f98:	080007ff 	j	1ffc <memchr+0x94>
    1f9c:	00000000 	nop
    1fa0:	8fc20028 	lw	v0,40(s8)
    1fa4:	00000000 	nop
    1fa8:	2443ffff 	addiu	v1,v0,-1
    1fac:	afc30028 	sw	v1,40(s8)
    1fb0:	14400004 	bnez	v0,1fc4 <memchr+0x5c>
    1fb4:	00000000 	nop
    1fb8:	00001021 	move	v0,zero
    1fbc:	08000872 	j	21c8 <memchr+0x260>
    1fc0:	00000000 	nop
    1fc4:	8fc20000 	lw	v0,0(s8)
    1fc8:	00000000 	nop
    1fcc:	90420000 	lbu	v0,0(v0)
    1fd0:	93c30010 	lbu	v1,16(s8)
    1fd4:	00000000 	nop
    1fd8:	14620004 	bne	v1,v0,1fec <memchr+0x84>
    1fdc:	00000000 	nop
    1fe0:	8fc20000 	lw	v0,0(s8)
    1fe4:	08000872 	j	21c8 <memchr+0x260>
    1fe8:	00000000 	nop
    1fec:	8fc20000 	lw	v0,0(s8)
    1ff0:	00000000 	nop
    1ff4:	24420001 	addiu	v0,v0,1
    1ff8:	afc20000 	sw	v0,0(s8)
    1ffc:	8fc20000 	lw	v0,0(s8)
    2000:	00000000 	nop
    2004:	30420003 	andi	v0,v0,0x3
    2008:	1440ffe5 	bnez	v0,1fa0 <memchr+0x38>
    200c:	00000000 	nop
    2010:	8fc20028 	lw	v0,40(s8)
    2014:	00000000 	nop
    2018:	2c420004 	sltiu	v0,v0,4
    201c:	14400053 	bnez	v0,216c <memchr+0x204>
    2020:	00000000 	nop
    2024:	8fc20000 	lw	v0,0(s8)
    2028:	00000000 	nop
    202c:	afc20004 	sw	v0,4(s8)
    2030:	93c20010 	lbu	v0,16(s8)
    2034:	00000000 	nop
    2038:	00021a00 	sll	v1,v0,0x8
    203c:	93c20010 	lbu	v0,16(s8)
    2040:	00000000 	nop
    2044:	00621025 	or	v0,v1,v0
    2048:	afc20008 	sw	v0,8(s8)
    204c:	8fc20008 	lw	v0,8(s8)
    2050:	00000000 	nop
    2054:	00021400 	sll	v0,v0,0x10
    2058:	8fc30008 	lw	v1,8(s8)
    205c:	00000000 	nop
    2060:	00621025 	or	v0,v1,v0
    2064:	afc20008 	sw	v0,8(s8)
    2068:	24020020 	li	v0,32
    206c:	afc2000c 	sw	v0,12(s8)
    2070:	0800082a 	j	20a8 <memchr+0x140>
    2074:	00000000 	nop
    2078:	8fc30008 	lw	v1,8(s8)
    207c:	8fc2000c 	lw	v0,12(s8)
    2080:	00000000 	nop
    2084:	00431004 	sllv	v0,v1,v0
    2088:	8fc30008 	lw	v1,8(s8)
    208c:	00000000 	nop
    2090:	00621025 	or	v0,v1,v0
    2094:	afc20008 	sw	v0,8(s8)
    2098:	8fc2000c 	lw	v0,12(s8)
    209c:	00000000 	nop
    20a0:	00021040 	sll	v0,v0,0x1
    20a4:	afc2000c 	sw	v0,12(s8)
    20a8:	8fc2000c 	lw	v0,12(s8)
    20ac:	00000000 	nop
    20b0:	2c420020 	sltiu	v0,v0,32
    20b4:	1440fff0 	bnez	v0,2078 <memchr+0x110>
    20b8:	00000000 	nop
    20bc:	08000851 	j	2144 <memchr+0x1dc>
    20c0:	00000000 	nop
    20c4:	8fc20004 	lw	v0,4(s8)
    20c8:	00000000 	nop
    20cc:	8c430000 	lw	v1,0(v0)
    20d0:	8fc20008 	lw	v0,8(s8)
    20d4:	00000000 	nop
    20d8:	00621826 	xor	v1,v1,v0
    20dc:	3c02fefe 	lui	v0,0xfefe
    20e0:	3442feff 	ori	v0,v0,0xfeff
    20e4:	00621821 	addu	v1,v1,v0
    20e8:	8fc20004 	lw	v0,4(s8)
    20ec:	00000000 	nop
    20f0:	8c440000 	lw	a0,0(v0)
    20f4:	8fc20008 	lw	v0,8(s8)
    20f8:	00000000 	nop
    20fc:	00821026 	xor	v0,a0,v0
    2100:	00021027 	nor	v0,zero,v0
    2104:	00621824 	and	v1,v1,v0
    2108:	3c028080 	lui	v0,0x8080
    210c:	34428080 	ori	v0,v0,0x8080
    2110:	00621024 	and	v0,v1,v0
    2114:	10400003 	beqz	v0,2124 <memchr+0x1bc>
    2118:	00000000 	nop
    211c:	08000856 	j	2158 <memchr+0x1f0>
    2120:	00000000 	nop
    2124:	8fc20028 	lw	v0,40(s8)
    2128:	00000000 	nop
    212c:	2442fffc 	addiu	v0,v0,-4
    2130:	afc20028 	sw	v0,40(s8)
    2134:	8fc20004 	lw	v0,4(s8)
    2138:	00000000 	nop
    213c:	24420004 	addiu	v0,v0,4
    2140:	afc20004 	sw	v0,4(s8)
    2144:	8fc20028 	lw	v0,40(s8)
    2148:	00000000 	nop
    214c:	2c420004 	sltiu	v0,v0,4
    2150:	1040ffdc 	beqz	v0,20c4 <memchr+0x15c>
    2154:	00000000 	nop
    2158:	8fc20004 	lw	v0,4(s8)
    215c:	00000000 	nop
    2160:	afc20000 	sw	v0,0(s8)
    2164:	0800086b 	j	21ac <memchr+0x244>
    2168:	00000000 	nop
    216c:	0800086b 	j	21ac <memchr+0x244>
    2170:	00000000 	nop
    2174:	8fc20000 	lw	v0,0(s8)
    2178:	00000000 	nop
    217c:	90420000 	lbu	v0,0(v0)
    2180:	93c30010 	lbu	v1,16(s8)
    2184:	00000000 	nop
    2188:	14620004 	bne	v1,v0,219c <memchr+0x234>
    218c:	00000000 	nop
    2190:	8fc20000 	lw	v0,0(s8)
    2194:	08000872 	j	21c8 <memchr+0x260>
    2198:	00000000 	nop
    219c:	8fc20000 	lw	v0,0(s8)
    21a0:	00000000 	nop
    21a4:	24420001 	addiu	v0,v0,1
    21a8:	afc20000 	sw	v0,0(s8)
    21ac:	8fc20028 	lw	v0,40(s8)
    21b0:	00000000 	nop
    21b4:	2443ffff 	addiu	v1,v0,-1
    21b8:	afc30028 	sw	v1,40(s8)
    21bc:	1440ffed 	bnez	v0,2174 <memchr+0x20c>
    21c0:	00000000 	nop
    21c4:	00001021 	move	v0,zero
    21c8:	03c0e821 	move	sp,s8
    21cc:	8fbe001c 	lw	s8,28(sp)
    21d0:	27bd0020 	addiu	sp,sp,32
    21d4:	03e00008 	jr	ra
    21d8:	00000000 	nop

000021dc <memcpy>:
    21dc:	27bdffc0 	addiu	sp,sp,-64
    21e0:	afbe003c 	sw	s8,60(sp)
    21e4:	03a0f021 	move	s8,sp
    21e8:	afc40040 	sw	a0,64(s8)
    21ec:	afc50044 	sw	a1,68(s8)
    21f0:	afc60048 	sw	a2,72(s8)
    21f4:	8fc20040 	lw	v0,64(s8)
    21f8:	00000000 	nop
    21fc:	afc20000 	sw	v0,0(s8)
    2200:	8fc20044 	lw	v0,68(s8)
    2204:	00000000 	nop
    2208:	afc20004 	sw	v0,4(s8)
    220c:	8fc20048 	lw	v0,72(s8)
    2210:	00000000 	nop
    2214:	afc20010 	sw	v0,16(s8)
    2218:	8fc30004 	lw	v1,4(s8)
    221c:	8fc20000 	lw	v0,0(s8)
    2220:	00000000 	nop
    2224:	00621025 	or	v0,v1,v0
    2228:	30420003 	andi	v0,v0,0x3
    222c:	14400086 	bnez	v0,2448 <memcpy+0x26c>
    2230:	00000000 	nop
    2234:	8fc20010 	lw	v0,16(s8)
    2238:	00000000 	nop
    223c:	00021102 	srl	v0,v0,0x4
    2240:	afc20014 	sw	v0,20(s8)
    2244:	8fc20010 	lw	v0,16(s8)
    2248:	00000000 	nop
    224c:	3042000f 	andi	v0,v0,0xf
    2250:	afc20010 	sw	v0,16(s8)
    2254:	8fc20000 	lw	v0,0(s8)
    2258:	00000000 	nop
    225c:	afc20008 	sw	v0,8(s8)
    2260:	8fc20004 	lw	v0,4(s8)
    2264:	00000000 	nop
    2268:	afc2000c 	sw	v0,12(s8)
    226c:	080008d3 	j	234c <memcpy+0x170>
    2270:	00000000 	nop
    2274:	8fc2000c 	lw	v0,12(s8)
    2278:	00000000 	nop
    227c:	8c420000 	lw	v0,0(v0)
    2280:	00000000 	nop
    2284:	afc20020 	sw	v0,32(s8)
    2288:	8fc2000c 	lw	v0,12(s8)
    228c:	00000000 	nop
    2290:	8c420004 	lw	v0,4(v0)
    2294:	00000000 	nop
    2298:	afc20024 	sw	v0,36(s8)
    229c:	8fc2000c 	lw	v0,12(s8)
    22a0:	00000000 	nop
    22a4:	8c420008 	lw	v0,8(v0)
    22a8:	00000000 	nop
    22ac:	afc20028 	sw	v0,40(s8)
    22b0:	8fc2000c 	lw	v0,12(s8)
    22b4:	00000000 	nop
    22b8:	8c42000c 	lw	v0,12(v0)
    22bc:	00000000 	nop
    22c0:	afc2002c 	sw	v0,44(s8)
    22c4:	8fc20008 	lw	v0,8(s8)
    22c8:	8fc30020 	lw	v1,32(s8)
    22cc:	00000000 	nop
    22d0:	ac430000 	sw	v1,0(v0)
    22d4:	8fc20008 	lw	v0,8(s8)
    22d8:	00000000 	nop
    22dc:	24420004 	addiu	v0,v0,4
    22e0:	8fc30024 	lw	v1,36(s8)
    22e4:	00000000 	nop
    22e8:	ac430000 	sw	v1,0(v0)
    22ec:	8fc20008 	lw	v0,8(s8)
    22f0:	00000000 	nop
    22f4:	24420008 	addiu	v0,v0,8
    22f8:	8fc30028 	lw	v1,40(s8)
    22fc:	00000000 	nop
    2300:	ac430000 	sw	v1,0(v0)
    2304:	8fc20008 	lw	v0,8(s8)
    2308:	00000000 	nop
    230c:	2442000c 	addiu	v0,v0,12
    2310:	8fc3002c 	lw	v1,44(s8)
    2314:	00000000 	nop
    2318:	ac430000 	sw	v1,0(v0)
    231c:	8fc2000c 	lw	v0,12(s8)
    2320:	00000000 	nop
    2324:	24420010 	addiu	v0,v0,16
    2328:	afc2000c 	sw	v0,12(s8)
    232c:	8fc20008 	lw	v0,8(s8)
    2330:	00000000 	nop
    2334:	24420010 	addiu	v0,v0,16
    2338:	afc20008 	sw	v0,8(s8)
    233c:	8fc20014 	lw	v0,20(s8)
    2340:	00000000 	nop
    2344:	2442ffff 	addiu	v0,v0,-1
    2348:	afc20014 	sw	v0,20(s8)
    234c:	8fc20014 	lw	v0,20(s8)
    2350:	00000000 	nop
    2354:	1440ffc7 	bnez	v0,2274 <memcpy+0x98>
    2358:	00000000 	nop
    235c:	8fc20010 	lw	v0,16(s8)
    2360:	00000000 	nop
    2364:	00021082 	srl	v0,v0,0x2
    2368:	afc20014 	sw	v0,20(s8)
    236c:	8fc20010 	lw	v0,16(s8)
    2370:	00000000 	nop
    2374:	30420003 	andi	v0,v0,0x3
    2378:	afc20010 	sw	v0,16(s8)
    237c:	080008f0 	j	23c0 <memcpy+0x1e4>
    2380:	00000000 	nop
    2384:	8fc20008 	lw	v0,8(s8)
    2388:	00000000 	nop
    238c:	24430004 	addiu	v1,v0,4
    2390:	afc30008 	sw	v1,8(s8)
    2394:	8fc3000c 	lw	v1,12(s8)
    2398:	00000000 	nop
    239c:	24640004 	addiu	a0,v1,4
    23a0:	afc4000c 	sw	a0,12(s8)
    23a4:	8c630000 	lw	v1,0(v1)
    23a8:	00000000 	nop
    23ac:	ac430000 	sw	v1,0(v0)
    23b0:	8fc20014 	lw	v0,20(s8)
    23b4:	00000000 	nop
    23b8:	2442ffff 	addiu	v0,v0,-1
    23bc:	afc20014 	sw	v0,20(s8)
    23c0:	8fc20014 	lw	v0,20(s8)
    23c4:	00000000 	nop
    23c8:	1440ffee 	bnez	v0,2384 <memcpy+0x1a8>
    23cc:	00000000 	nop
    23d0:	8fc20008 	lw	v0,8(s8)
    23d4:	00000000 	nop
    23d8:	afc20000 	sw	v0,0(s8)
    23dc:	8fc2000c 	lw	v0,12(s8)
    23e0:	00000000 	nop
    23e4:	afc20004 	sw	v0,4(s8)
    23e8:	0800090b 	j	242c <memcpy+0x250>
    23ec:	00000000 	nop
    23f0:	8fc20000 	lw	v0,0(s8)
    23f4:	00000000 	nop
    23f8:	24430001 	addiu	v1,v0,1
    23fc:	afc30000 	sw	v1,0(s8)
    2400:	8fc30004 	lw	v1,4(s8)
    2404:	00000000 	nop
    2408:	24640001 	addiu	a0,v1,1
    240c:	afc40004 	sw	a0,4(s8)
    2410:	80630000 	lb	v1,0(v1)
    2414:	00000000 	nop
    2418:	a0430000 	sb	v1,0(v0)
    241c:	8fc20010 	lw	v0,16(s8)
    2420:	00000000 	nop
    2424:	2442ffff 	addiu	v0,v0,-1
    2428:	afc20010 	sw	v0,16(s8)
    242c:	8fc20010 	lw	v0,16(s8)
    2430:	00000000 	nop
    2434:	1c40ffee 	bgtz	v0,23f0 <memcpy+0x214>
    2438:	00000000 	nop
    243c:	8fc20040 	lw	v0,64(s8)
    2440:	08000964 	j	2590 <memcpy+0x3b4>
    2444:	00000000 	nop
    2448:	8fc20004 	lw	v0,4(s8)
    244c:	00000000 	nop
    2450:	afc20018 	sw	v0,24(s8)
    2454:	8fc20000 	lw	v0,0(s8)
    2458:	00000000 	nop
    245c:	afc2001c 	sw	v0,28(s8)
    2460:	8fc20010 	lw	v0,16(s8)
    2464:	00000000 	nop
    2468:	04410002 	bgez	v0,2474 <memcpy+0x298>
    246c:	00000000 	nop
    2470:	24420003 	addiu	v0,v0,3
    2474:	00021083 	sra	v0,v0,0x2
    2478:	afc20014 	sw	v0,20(s8)
    247c:	8fc30010 	lw	v1,16(s8)
    2480:	3c028000 	lui	v0,0x8000
    2484:	34420003 	ori	v0,v0,0x3
    2488:	00621024 	and	v0,v1,v0
    248c:	04410005 	bgez	v0,24a4 <memcpy+0x2c8>
    2490:	00000000 	nop
    2494:	2442ffff 	addiu	v0,v0,-1
    2498:	2403fffc 	li	v1,-4
    249c:	00431025 	or	v0,v0,v1
    24a0:	24420001 	addiu	v0,v0,1
    24a4:	afc20010 	sw	v0,16(s8)
    24a8:	08000944 	j	2510 <memcpy+0x334>
    24ac:	00000000 	nop
    24b0:	8fc20018 	lw	v0,24(s8)
    24b4:	00000000 	nop
    24b8:	88410000 	lwl	at,0(v0)
    24bc:	98410003 	lwr	at,3(v0)
    24c0:	00000000 	nop
    24c4:	00201021 	move	v0,at
    24c8:	afc20030 	sw	v0,48(s8)
    24cc:	8fc20014 	lw	v0,20(s8)
    24d0:	00000000 	nop
    24d4:	2442ffff 	addiu	v0,v0,-1
    24d8:	afc20014 	sw	v0,20(s8)
    24dc:	8fc20018 	lw	v0,24(s8)
    24e0:	00000000 	nop
    24e4:	24420004 	addiu	v0,v0,4
    24e8:	afc20018 	sw	v0,24(s8)
    24ec:	8fc2001c 	lw	v0,28(s8)
    24f0:	8fc30030 	lw	v1,48(s8)
    24f4:	00000000 	nop
    24f8:	a8430000 	swl	v1,0(v0)
    24fc:	b8430003 	swr	v1,3(v0)
    2500:	8fc2001c 	lw	v0,28(s8)
    2504:	00000000 	nop
    2508:	24420004 	addiu	v0,v0,4
    250c:	afc2001c 	sw	v0,28(s8)
    2510:	8fc20014 	lw	v0,20(s8)
    2514:	00000000 	nop
    2518:	1440ffe5 	bnez	v0,24b0 <memcpy+0x2d4>
    251c:	00000000 	nop
    2520:	8fc2001c 	lw	v0,28(s8)
    2524:	00000000 	nop
    2528:	afc20000 	sw	v0,0(s8)
    252c:	8fc20018 	lw	v0,24(s8)
    2530:	00000000 	nop
    2534:	afc20004 	sw	v0,4(s8)
    2538:	0800095f 	j	257c <memcpy+0x3a0>
    253c:	00000000 	nop
    2540:	8fc20000 	lw	v0,0(s8)
    2544:	00000000 	nop
    2548:	24430001 	addiu	v1,v0,1
    254c:	afc30000 	sw	v1,0(s8)
    2550:	8fc30004 	lw	v1,4(s8)
    2554:	00000000 	nop
    2558:	24640001 	addiu	a0,v1,1
    255c:	afc40004 	sw	a0,4(s8)
    2560:	80630000 	lb	v1,0(v1)
    2564:	00000000 	nop
    2568:	a0430000 	sb	v1,0(v0)
    256c:	8fc20010 	lw	v0,16(s8)
    2570:	00000000 	nop
    2574:	2442ffff 	addiu	v0,v0,-1
    2578:	afc20010 	sw	v0,16(s8)
    257c:	8fc20010 	lw	v0,16(s8)
    2580:	00000000 	nop
    2584:	1c40ffee 	bgtz	v0,2540 <memcpy+0x364>
    2588:	00000000 	nop
    258c:	8fc20040 	lw	v0,64(s8)
    2590:	03c0e821 	move	sp,s8
    2594:	8fbe003c 	lw	s8,60(sp)
    2598:	27bd0040 	addiu	sp,sp,64
    259c:	03e00008 	jr	ra
    25a0:	00000000 	nop

000025a4 <memmove>:
    25a4:	27bdffe8 	addiu	sp,sp,-24
    25a8:	afbe0014 	sw	s8,20(sp)
    25ac:	03a0f021 	move	s8,sp
    25b0:	afc40018 	sw	a0,24(s8)
    25b4:	afc5001c 	sw	a1,28(s8)
    25b8:	afc60020 	sw	a2,32(s8)
    25bc:	8fc20018 	lw	v0,24(s8)
    25c0:	00000000 	nop
    25c4:	afc20000 	sw	v0,0(s8)
    25c8:	8fc2001c 	lw	v0,28(s8)
    25cc:	00000000 	nop
    25d0:	afc20004 	sw	v0,4(s8)
    25d4:	8fc30004 	lw	v1,4(s8)
    25d8:	8fc20000 	lw	v0,0(s8)
    25dc:	00000000 	nop
    25e0:	0062102b 	sltu	v0,v1,v0
    25e4:	1040002c 	beqz	v0,2698 <memmove+0xf4>
    25e8:	00000000 	nop
    25ec:	8fc30004 	lw	v1,4(s8)
    25f0:	8fc20020 	lw	v0,32(s8)
    25f4:	00000000 	nop
    25f8:	00621821 	addu	v1,v1,v0
    25fc:	8fc20000 	lw	v0,0(s8)
    2600:	00000000 	nop
    2604:	0043102b 	sltu	v0,v0,v1
    2608:	10400023 	beqz	v0,2698 <memmove+0xf4>
    260c:	00000000 	nop
    2610:	8fc30004 	lw	v1,4(s8)
    2614:	8fc20020 	lw	v0,32(s8)
    2618:	00000000 	nop
    261c:	00621021 	addu	v0,v1,v0
    2620:	afc20004 	sw	v0,4(s8)
    2624:	8fc30000 	lw	v1,0(s8)
    2628:	8fc20020 	lw	v0,32(s8)
    262c:	00000000 	nop
    2630:	00621021 	addu	v0,v1,v0
    2634:	afc20000 	sw	v0,0(s8)
    2638:	0800099e 	j	2678 <memmove+0xd4>
    263c:	00000000 	nop
    2640:	8fc20000 	lw	v0,0(s8)
    2644:	00000000 	nop
    2648:	2442ffff 	addiu	v0,v0,-1
    264c:	afc20000 	sw	v0,0(s8)
    2650:	8fc20004 	lw	v0,4(s8)
    2654:	00000000 	nop
    2658:	2442ffff 	addiu	v0,v0,-1
    265c:	afc20004 	sw	v0,4(s8)
    2660:	8fc20004 	lw	v0,4(s8)
    2664:	00000000 	nop
    2668:	80430000 	lb	v1,0(v0)
    266c:	8fc20000 	lw	v0,0(s8)
    2670:	00000000 	nop
    2674:	a0430000 	sb	v1,0(v0)
    2678:	8fc20020 	lw	v0,32(s8)
    267c:	00000000 	nop
    2680:	2443ffff 	addiu	v1,v0,-1
    2684:	afc30020 	sw	v1,32(s8)
    2688:	1440ffed 	bnez	v0,2640 <memmove+0x9c>
    268c:	00000000 	nop
    2690:	08000a20 	j	2880 <memmove+0x2dc>
    2694:	00000000 	nop
    2698:	8fc20020 	lw	v0,32(s8)
    269c:	00000000 	nop
    26a0:	2c420010 	sltiu	v0,v0,16
    26a4:	14400063 	bnez	v0,2834 <memmove+0x290>
    26a8:	00000000 	nop
    26ac:	8fc30004 	lw	v1,4(s8)
    26b0:	8fc20000 	lw	v0,0(s8)
    26b4:	00000000 	nop
    26b8:	00621025 	or	v0,v1,v0
    26bc:	30420003 	andi	v0,v0,0x3
    26c0:	1440005c 	bnez	v0,2834 <memmove+0x290>
    26c4:	00000000 	nop
    26c8:	8fc20000 	lw	v0,0(s8)
    26cc:	00000000 	nop
    26d0:	afc20008 	sw	v0,8(s8)
    26d4:	8fc20004 	lw	v0,4(s8)
    26d8:	00000000 	nop
    26dc:	afc2000c 	sw	v0,12(s8)
    26e0:	080009ea 	j	27a8 <memmove+0x204>
    26e4:	00000000 	nop
    26e8:	8fc20008 	lw	v0,8(s8)
    26ec:	00000000 	nop
    26f0:	24430004 	addiu	v1,v0,4
    26f4:	afc30008 	sw	v1,8(s8)
    26f8:	8fc3000c 	lw	v1,12(s8)
    26fc:	00000000 	nop
    2700:	24640004 	addiu	a0,v1,4
    2704:	afc4000c 	sw	a0,12(s8)
    2708:	8c630000 	lw	v1,0(v1)
    270c:	00000000 	nop
    2710:	ac430000 	sw	v1,0(v0)
    2714:	8fc20008 	lw	v0,8(s8)
    2718:	00000000 	nop
    271c:	24430004 	addiu	v1,v0,4
    2720:	afc30008 	sw	v1,8(s8)
    2724:	8fc3000c 	lw	v1,12(s8)
    2728:	00000000 	nop
    272c:	24640004 	addiu	a0,v1,4
    2730:	afc4000c 	sw	a0,12(s8)
    2734:	8c630000 	lw	v1,0(v1)
    2738:	00000000 	nop
    273c:	ac430000 	sw	v1,0(v0)
    2740:	8fc20008 	lw	v0,8(s8)
    2744:	00000000 	nop
    2748:	24430004 	addiu	v1,v0,4
    274c:	afc30008 	sw	v1,8(s8)
    2750:	8fc3000c 	lw	v1,12(s8)
    2754:	00000000 	nop
    2758:	24640004 	addiu	a0,v1,4
    275c:	afc4000c 	sw	a0,12(s8)
    2760:	8c630000 	lw	v1,0(v1)
    2764:	00000000 	nop
    2768:	ac430000 	sw	v1,0(v0)
    276c:	8fc20008 	lw	v0,8(s8)
    2770:	00000000 	nop
    2774:	24430004 	addiu	v1,v0,4
    2778:	afc30008 	sw	v1,8(s8)
    277c:	8fc3000c 	lw	v1,12(s8)
    2780:	00000000 	nop
    2784:	24640004 	addiu	a0,v1,4
    2788:	afc4000c 	sw	a0,12(s8)
    278c:	8c630000 	lw	v1,0(v1)
    2790:	00000000 	nop
    2794:	ac430000 	sw	v1,0(v0)
    2798:	8fc20020 	lw	v0,32(s8)
    279c:	00000000 	nop
    27a0:	2442fff0 	addiu	v0,v0,-16
    27a4:	afc20020 	sw	v0,32(s8)
    27a8:	8fc20020 	lw	v0,32(s8)
    27ac:	00000000 	nop
    27b0:	2c420010 	sltiu	v0,v0,16
    27b4:	1040ffcc 	beqz	v0,26e8 <memmove+0x144>
    27b8:	00000000 	nop
    27bc:	08000a00 	j	2800 <memmove+0x25c>
    27c0:	00000000 	nop
    27c4:	8fc20008 	lw	v0,8(s8)
    27c8:	00000000 	nop
    27cc:	24430004 	addiu	v1,v0,4
    27d0:	afc30008 	sw	v1,8(s8)
    27d4:	8fc3000c 	lw	v1,12(s8)
    27d8:	00000000 	nop
    27dc:	24640004 	addiu	a0,v1,4
    27e0:	afc4000c 	sw	a0,12(s8)
    27e4:	8c630000 	lw	v1,0(v1)
    27e8:	00000000 	nop
    27ec:	ac430000 	sw	v1,0(v0)
    27f0:	8fc20020 	lw	v0,32(s8)
    27f4:	00000000 	nop
    27f8:	2442fffc 	addiu	v0,v0,-4
    27fc:	afc20020 	sw	v0,32(s8)
    2800:	8fc20020 	lw	v0,32(s8)
    2804:	00000000 	nop
    2808:	2c420004 	sltiu	v0,v0,4
    280c:	1040ffed 	beqz	v0,27c4 <memmove+0x220>
    2810:	00000000 	nop
    2814:	8fc20008 	lw	v0,8(s8)
    2818:	00000000 	nop
    281c:	afc20000 	sw	v0,0(s8)
    2820:	8fc2000c 	lw	v0,12(s8)
    2824:	00000000 	nop
    2828:	afc20004 	sw	v0,4(s8)
    282c:	08000a1a 	j	2868 <memmove+0x2c4>
    2830:	00000000 	nop
    2834:	08000a1a 	j	2868 <memmove+0x2c4>
    2838:	00000000 	nop
    283c:	8fc20000 	lw	v0,0(s8)
    2840:	00000000 	nop
    2844:	24430001 	addiu	v1,v0,1
    2848:	afc30000 	sw	v1,0(s8)
    284c:	8fc30004 	lw	v1,4(s8)
    2850:	00000000 	nop
    2854:	24640001 	addiu	a0,v1,1
    2858:	afc40004 	sw	a0,4(s8)
    285c:	80630000 	lb	v1,0(v1)
    2860:	00000000 	nop
    2864:	a0430000 	sb	v1,0(v0)
    2868:	8fc20020 	lw	v0,32(s8)
    286c:	00000000 	nop
    2870:	2443ffff 	addiu	v1,v0,-1
    2874:	afc30020 	sw	v1,32(s8)
    2878:	1440fff0 	bnez	v0,283c <memmove+0x298>
    287c:	00000000 	nop
    2880:	8fc20018 	lw	v0,24(s8)
    2884:	03c0e821 	move	sp,s8
    2888:	8fbe0014 	lw	s8,20(sp)
    288c:	27bd0018 	addiu	sp,sp,24
    2890:	03e00008 	jr	ra
    2894:	00000000 	nop

00002898 <__malloc_lock>:
    2898:	27bdfff8 	addiu	sp,sp,-8
    289c:	afbe0004 	sw	s8,4(sp)
    28a0:	03a0f021 	move	s8,sp
    28a4:	afc40008 	sw	a0,8(s8)
    28a8:	03c0e821 	move	sp,s8
    28ac:	8fbe0004 	lw	s8,4(sp)
    28b0:	27bd0008 	addiu	sp,sp,8
    28b4:	03e00008 	jr	ra
    28b8:	00000000 	nop

000028bc <__malloc_unlock>:
    28bc:	27bdfff8 	addiu	sp,sp,-8
    28c0:	afbe0004 	sw	s8,4(sp)
    28c4:	03a0f021 	move	s8,sp
    28c8:	afc40008 	sw	a0,8(s8)
    28cc:	03c0e821 	move	sp,s8
    28d0:	8fbe0004 	lw	s8,4(sp)
    28d4:	27bd0008 	addiu	sp,sp,8
    28d8:	03e00008 	jr	ra
    28dc:	00000000 	nop

000028e0 <_realloc_r>:
    28e0:	27bdff80 	addiu	sp,sp,-128
    28e4:	afbf007c 	sw	ra,124(sp)
    28e8:	afbe0078 	sw	s8,120(sp)
    28ec:	03a0f021 	move	s8,sp
    28f0:	afc40080 	sw	a0,128(s8)
    28f4:	afc50084 	sw	a1,132(s8)
    28f8:	afc60088 	sw	a2,136(s8)
    28fc:	8fc20084 	lw	v0,132(s8)
    2900:	00000000 	nop
    2904:	14400007 	bnez	v0,2924 <_realloc_r+0x44>
    2908:	00000000 	nop
    290c:	8fc40080 	lw	a0,128(s8)
    2910:	8fc50088 	lw	a1,136(s8)
    2914:	0c0003e4 	jal	f90 <_malloc_r>
    2918:	00000000 	nop
    291c:	08000e77 	j	39dc <_realloc_r+0x10fc>
    2920:	00000000 	nop
    2924:	8fc40080 	lw	a0,128(s8)
    2928:	0c000a26 	jal	2898 <__malloc_lock>
    292c:	00000000 	nop
    2930:	8fc20084 	lw	v0,132(s8)
    2934:	00000000 	nop
    2938:	2442fff8 	addiu	v0,v0,-8
    293c:	afc20040 	sw	v0,64(s8)
    2940:	8fc20040 	lw	v0,64(s8)
    2944:	00000000 	nop
    2948:	afc20010 	sw	v0,16(s8)
    294c:	8fc20040 	lw	v0,64(s8)
    2950:	00000000 	nop
    2954:	8c430004 	lw	v1,4(v0)
    2958:	2402fffc 	li	v0,-4
    295c:	00621024 	and	v0,v1,v0
    2960:	afc20044 	sw	v0,68(s8)
    2964:	8fc20044 	lw	v0,68(s8)
    2968:	00000000 	nop
    296c:	afc20014 	sw	v0,20(s8)
    2970:	8fc20088 	lw	v0,136(s8)
    2974:	00000000 	nop
    2978:	2442000b 	addiu	v0,v0,11
    297c:	2c420017 	sltiu	v0,v0,23
    2980:	14400008 	bnez	v0,29a4 <_realloc_r+0xc4>
    2984:	00000000 	nop
    2988:	8fc20088 	lw	v0,136(s8)
    298c:	00000000 	nop
    2990:	2443000b 	addiu	v1,v0,11
    2994:	2402fff8 	li	v0,-8
    2998:	00621024 	and	v0,v1,v0
    299c:	08000a6a 	j	29a8 <_realloc_r+0xc8>
    29a0:	00000000 	nop
    29a4:	24020010 	li	v0,16
    29a8:	afc20048 	sw	v0,72(s8)
    29ac:	8fc20048 	lw	v0,72(s8)
    29b0:	00000000 	nop
    29b4:	04400007 	bltz	v0,29d4 <_realloc_r+0xf4>
    29b8:	00000000 	nop
    29bc:	8fc30048 	lw	v1,72(s8)
    29c0:	8fc20088 	lw	v0,136(s8)
    29c4:	00000000 	nop
    29c8:	0062102b 	sltu	v0,v1,v0
    29cc:	10400007 	beqz	v0,29ec <_realloc_r+0x10c>
    29d0:	00000000 	nop
    29d4:	8fc20080 	lw	v0,128(s8)
    29d8:	2403000c 	li	v1,12
    29dc:	ac430000 	sw	v1,0(v0)
    29e0:	00001021 	move	v0,zero
    29e4:	08000e77 	j	39dc <_realloc_r+0x10fc>
    29e8:	00000000 	nop
    29ec:	8fc30044 	lw	v1,68(s8)
    29f0:	8fc20048 	lw	v0,72(s8)
    29f4:	00000000 	nop
    29f8:	0062102a 	slt	v0,v1,v0
    29fc:	104003a5 	beqz	v0,3894 <_realloc_r+0xfb4>
    2a00:	00000000 	nop
    2a04:	8fc30040 	lw	v1,64(s8)
    2a08:	8fc20044 	lw	v0,68(s8)
    2a0c:	00000000 	nop
    2a10:	00621021 	addu	v0,v1,v0
    2a14:	afc20018 	sw	v0,24(s8)
    2a18:	3c020000 	lui	v0,0x0
    2a1c:	24427428 	addiu	v0,v0,29736
    2a20:	8c430008 	lw	v1,8(v0)
    2a24:	8fc20018 	lw	v0,24(s8)
    2a28:	00000000 	nop
    2a2c:	1062000e 	beq	v1,v0,2a68 <_realloc_r+0x188>
    2a30:	00000000 	nop
    2a34:	8fc20018 	lw	v0,24(s8)
    2a38:	00000000 	nop
    2a3c:	8c430004 	lw	v1,4(v0)
    2a40:	2402fffe 	li	v0,-2
    2a44:	00621024 	and	v0,v1,v0
    2a48:	8fc30018 	lw	v1,24(s8)
    2a4c:	00000000 	nop
    2a50:	00621021 	addu	v0,v1,v0
    2a54:	8c420004 	lw	v0,4(v0)
    2a58:	00000000 	nop
    2a5c:	30420001 	andi	v0,v0,0x1
    2a60:	14400066 	bnez	v0,2bfc <_realloc_r+0x31c>
    2a64:	00000000 	nop
    2a68:	8fc20018 	lw	v0,24(s8)
    2a6c:	00000000 	nop
    2a70:	8c430004 	lw	v1,4(v0)
    2a74:	2402fffc 	li	v0,-4
    2a78:	00621024 	and	v0,v1,v0
    2a7c:	afc2001c 	sw	v0,28(s8)
    2a80:	3c020000 	lui	v0,0x0
    2a84:	24427428 	addiu	v0,v0,29736
    2a88:	8c430008 	lw	v1,8(v0)
    2a8c:	8fc20018 	lw	v0,24(s8)
    2a90:	00000000 	nop
    2a94:	14620034 	bne	v1,v0,2b68 <_realloc_r+0x288>
    2a98:	00000000 	nop
    2a9c:	8fc3001c 	lw	v1,28(s8)
    2aa0:	8fc20014 	lw	v0,20(s8)
    2aa4:	00000000 	nop
    2aa8:	00621021 	addu	v0,v1,v0
    2aac:	00401821 	move	v1,v0
    2ab0:	8fc20048 	lw	v0,72(s8)
    2ab4:	00000000 	nop
    2ab8:	24420010 	addiu	v0,v0,16
    2abc:	0062102a 	slt	v0,v1,v0
    2ac0:	1440004c 	bnez	v0,2bf4 <_realloc_r+0x314>
    2ac4:	00000000 	nop
    2ac8:	8fc30014 	lw	v1,20(s8)
    2acc:	8fc2001c 	lw	v0,28(s8)
    2ad0:	00000000 	nop
    2ad4:	00621021 	addu	v0,v1,v0
    2ad8:	afc20014 	sw	v0,20(s8)
    2adc:	3c020000 	lui	v0,0x0
    2ae0:	24427428 	addiu	v0,v0,29736
    2ae4:	8fc40040 	lw	a0,64(s8)
    2ae8:	8fc30048 	lw	v1,72(s8)
    2aec:	00000000 	nop
    2af0:	00831821 	addu	v1,a0,v1
    2af4:	ac430008 	sw	v1,8(v0)
    2af8:	3c020000 	lui	v0,0x0
    2afc:	24427428 	addiu	v0,v0,29736
    2b00:	8c420008 	lw	v0,8(v0)
    2b04:	8fc40014 	lw	a0,20(s8)
    2b08:	8fc30048 	lw	v1,72(s8)
    2b0c:	00000000 	nop
    2b10:	00831823 	subu	v1,a0,v1
    2b14:	34630001 	ori	v1,v1,0x1
    2b18:	ac430004 	sw	v1,4(v0)
    2b1c:	8fc20040 	lw	v0,64(s8)
    2b20:	00000000 	nop
    2b24:	8c420004 	lw	v0,4(v0)
    2b28:	00000000 	nop
    2b2c:	30430001 	andi	v1,v0,0x1
    2b30:	8fc20048 	lw	v0,72(s8)
    2b34:	00000000 	nop
    2b38:	00621825 	or	v1,v1,v0
    2b3c:	8fc20040 	lw	v0,64(s8)
    2b40:	00000000 	nop
    2b44:	ac430004 	sw	v1,4(v0)
    2b48:	8fc40080 	lw	a0,128(s8)
    2b4c:	0c000a2f 	jal	28bc <__malloc_unlock>
    2b50:	00000000 	nop
    2b54:	8fc20040 	lw	v0,64(s8)
    2b58:	00000000 	nop
    2b5c:	24420008 	addiu	v0,v0,8
    2b60:	08000e77 	j	39dc <_realloc_r+0x10fc>
    2b64:	00000000 	nop
    2b68:	8fc3001c 	lw	v1,28(s8)
    2b6c:	8fc20014 	lw	v0,20(s8)
    2b70:	00000000 	nop
    2b74:	00621021 	addu	v0,v1,v0
    2b78:	00401821 	move	v1,v0
    2b7c:	8fc20048 	lw	v0,72(s8)
    2b80:	00000000 	nop
    2b84:	0062102a 	slt	v0,v1,v0
    2b88:	1440001a 	bnez	v0,2bf4 <_realloc_r+0x314>
    2b8c:	00000000 	nop
    2b90:	8fc20018 	lw	v0,24(s8)
    2b94:	00000000 	nop
    2b98:	8c42000c 	lw	v0,12(v0)
    2b9c:	00000000 	nop
    2ba0:	afc2004c 	sw	v0,76(s8)
    2ba4:	8fc20018 	lw	v0,24(s8)
    2ba8:	00000000 	nop
    2bac:	8c420008 	lw	v0,8(v0)
    2bb0:	00000000 	nop
    2bb4:	afc20050 	sw	v0,80(s8)
    2bb8:	8fc20050 	lw	v0,80(s8)
    2bbc:	8fc3004c 	lw	v1,76(s8)
    2bc0:	00000000 	nop
    2bc4:	ac43000c 	sw	v1,12(v0)
    2bc8:	8fc2004c 	lw	v0,76(s8)
    2bcc:	8fc30050 	lw	v1,80(s8)
    2bd0:	00000000 	nop
    2bd4:	ac430008 	sw	v1,8(v0)
    2bd8:	8fc30014 	lw	v1,20(s8)
    2bdc:	8fc2001c 	lw	v0,28(s8)
    2be0:	00000000 	nop
    2be4:	00621021 	addu	v0,v1,v0
    2be8:	afc20014 	sw	v0,20(s8)
    2bec:	08000e25 	j	3894 <_realloc_r+0xfb4>
    2bf0:	00000000 	nop
    2bf4:	08000b01 	j	2c04 <_realloc_r+0x324>
    2bf8:	00000000 	nop
    2bfc:	afc00018 	sw	zero,24(s8)
    2c00:	afc0001c 	sw	zero,28(s8)
    2c04:	8fc20040 	lw	v0,64(s8)
    2c08:	00000000 	nop
    2c0c:	8c420004 	lw	v0,4(v0)
    2c10:	00000000 	nop
    2c14:	30420001 	andi	v0,v0,0x1
    2c18:	14400264 	bnez	v0,35ac <_realloc_r+0xccc>
    2c1c:	00000000 	nop
    2c20:	8fc20040 	lw	v0,64(s8)
    2c24:	00000000 	nop
    2c28:	8c420000 	lw	v0,0(v0)
    2c2c:	00000000 	nop
    2c30:	00021023 	negu	v0,v0
    2c34:	8fc30040 	lw	v1,64(s8)
    2c38:	00000000 	nop
    2c3c:	00621021 	addu	v0,v1,v0
    2c40:	afc20054 	sw	v0,84(s8)
    2c44:	8fc20054 	lw	v0,84(s8)
    2c48:	00000000 	nop
    2c4c:	8c430004 	lw	v1,4(v0)
    2c50:	2402fffc 	li	v0,-4
    2c54:	00621024 	and	v0,v1,v0
    2c58:	afc20058 	sw	v0,88(s8)
    2c5c:	8fc20018 	lw	v0,24(s8)
    2c60:	00000000 	nop
    2c64:	104001a0 	beqz	v0,32e8 <_realloc_r+0xa08>
    2c68:	00000000 	nop
    2c6c:	3c020000 	lui	v0,0x0
    2c70:	24427428 	addiu	v0,v0,29736
    2c74:	8c430008 	lw	v1,8(v0)
    2c78:	8fc20018 	lw	v0,24(s8)
    2c7c:	00000000 	nop
    2c80:	146200d4 	bne	v1,v0,2fd4 <_realloc_r+0x6f4>
    2c84:	00000000 	nop
    2c88:	8fc3001c 	lw	v1,28(s8)
    2c8c:	8fc20058 	lw	v0,88(s8)
    2c90:	00000000 	nop
    2c94:	00621821 	addu	v1,v1,v0
    2c98:	8fc20014 	lw	v0,20(s8)
    2c9c:	00000000 	nop
    2ca0:	00621021 	addu	v0,v1,v0
    2ca4:	00401821 	move	v1,v0
    2ca8:	8fc20048 	lw	v0,72(s8)
    2cac:	00000000 	nop
    2cb0:	24420010 	addiu	v0,v0,16
    2cb4:	0062102a 	slt	v0,v1,v0
    2cb8:	1440018b 	bnez	v0,32e8 <_realloc_r+0xa08>
    2cbc:	00000000 	nop
    2cc0:	8fc20054 	lw	v0,84(s8)
    2cc4:	00000000 	nop
    2cc8:	8c42000c 	lw	v0,12(v0)
    2ccc:	00000000 	nop
    2cd0:	afc2004c 	sw	v0,76(s8)
    2cd4:	8fc20054 	lw	v0,84(s8)
    2cd8:	00000000 	nop
    2cdc:	8c420008 	lw	v0,8(v0)
    2ce0:	00000000 	nop
    2ce4:	afc20050 	sw	v0,80(s8)
    2ce8:	8fc20050 	lw	v0,80(s8)
    2cec:	8fc3004c 	lw	v1,76(s8)
    2cf0:	00000000 	nop
    2cf4:	ac43000c 	sw	v1,12(v0)
    2cf8:	8fc2004c 	lw	v0,76(s8)
    2cfc:	8fc30050 	lw	v1,80(s8)
    2d00:	00000000 	nop
    2d04:	ac430008 	sw	v1,8(v0)
    2d08:	8fc20054 	lw	v0,84(s8)
    2d0c:	00000000 	nop
    2d10:	afc20010 	sw	v0,16(s8)
    2d14:	8fc30058 	lw	v1,88(s8)
    2d18:	8fc2001c 	lw	v0,28(s8)
    2d1c:	00000000 	nop
    2d20:	00621021 	addu	v0,v1,v0
    2d24:	8fc30014 	lw	v1,20(s8)
    2d28:	00000000 	nop
    2d2c:	00621021 	addu	v0,v1,v0
    2d30:	afc20014 	sw	v0,20(s8)
    2d34:	8fc20010 	lw	v0,16(s8)
    2d38:	00000000 	nop
    2d3c:	24420008 	addiu	v0,v0,8
    2d40:	afc2005c 	sw	v0,92(s8)
    2d44:	8fc20044 	lw	v0,68(s8)
    2d48:	00000000 	nop
    2d4c:	2442fffc 	addiu	v0,v0,-4
    2d50:	afc20060 	sw	v0,96(s8)
    2d54:	8fc20060 	lw	v0,96(s8)
    2d58:	00000000 	nop
    2d5c:	2c420025 	sltiu	v0,v0,37
    2d60:	10400076 	beqz	v0,2f3c <_realloc_r+0x65c>
    2d64:	00000000 	nop
    2d68:	8fc20084 	lw	v0,132(s8)
    2d6c:	00000000 	nop
    2d70:	afc20020 	sw	v0,32(s8)
    2d74:	8fc2005c 	lw	v0,92(s8)
    2d78:	00000000 	nop
    2d7c:	afc20024 	sw	v0,36(s8)
    2d80:	8fc20060 	lw	v0,96(s8)
    2d84:	00000000 	nop
    2d88:	2c420014 	sltiu	v0,v0,20
    2d8c:	1440004d 	bnez	v0,2ec4 <_realloc_r+0x5e4>
    2d90:	00000000 	nop
    2d94:	8fc20024 	lw	v0,36(s8)
    2d98:	00000000 	nop
    2d9c:	24430004 	addiu	v1,v0,4
    2da0:	afc30024 	sw	v1,36(s8)
    2da4:	8fc30020 	lw	v1,32(s8)
    2da8:	00000000 	nop
    2dac:	24640004 	addiu	a0,v1,4
    2db0:	afc40020 	sw	a0,32(s8)
    2db4:	8c630000 	lw	v1,0(v1)
    2db8:	00000000 	nop
    2dbc:	ac430000 	sw	v1,0(v0)
    2dc0:	8fc20024 	lw	v0,36(s8)
    2dc4:	00000000 	nop
    2dc8:	24430004 	addiu	v1,v0,4
    2dcc:	afc30024 	sw	v1,36(s8)
    2dd0:	8fc30020 	lw	v1,32(s8)
    2dd4:	00000000 	nop
    2dd8:	24640004 	addiu	a0,v1,4
    2ddc:	afc40020 	sw	a0,32(s8)
    2de0:	8c630000 	lw	v1,0(v1)
    2de4:	00000000 	nop
    2de8:	ac430000 	sw	v1,0(v0)
    2dec:	8fc20060 	lw	v0,96(s8)
    2df0:	00000000 	nop
    2df4:	2c42001c 	sltiu	v0,v0,28
    2df8:	14400032 	bnez	v0,2ec4 <_realloc_r+0x5e4>
    2dfc:	00000000 	nop
    2e00:	8fc20024 	lw	v0,36(s8)
    2e04:	00000000 	nop
    2e08:	24430004 	addiu	v1,v0,4
    2e0c:	afc30024 	sw	v1,36(s8)
    2e10:	8fc30020 	lw	v1,32(s8)
    2e14:	00000000 	nop
    2e18:	24640004 	addiu	a0,v1,4
    2e1c:	afc40020 	sw	a0,32(s8)
    2e20:	8c630000 	lw	v1,0(v1)
    2e24:	00000000 	nop
    2e28:	ac430000 	sw	v1,0(v0)
    2e2c:	8fc20024 	lw	v0,36(s8)
    2e30:	00000000 	nop
    2e34:	24430004 	addiu	v1,v0,4
    2e38:	afc30024 	sw	v1,36(s8)
    2e3c:	8fc30020 	lw	v1,32(s8)
    2e40:	00000000 	nop
    2e44:	24640004 	addiu	a0,v1,4
    2e48:	afc40020 	sw	a0,32(s8)
    2e4c:	8c630000 	lw	v1,0(v1)
    2e50:	00000000 	nop
    2e54:	ac430000 	sw	v1,0(v0)
    2e58:	8fc20060 	lw	v0,96(s8)
    2e5c:	00000000 	nop
    2e60:	2c420024 	sltiu	v0,v0,36
    2e64:	14400017 	bnez	v0,2ec4 <_realloc_r+0x5e4>
    2e68:	00000000 	nop
    2e6c:	8fc20024 	lw	v0,36(s8)
    2e70:	00000000 	nop
    2e74:	24430004 	addiu	v1,v0,4
    2e78:	afc30024 	sw	v1,36(s8)
    2e7c:	8fc30020 	lw	v1,32(s8)
    2e80:	00000000 	nop
    2e84:	24640004 	addiu	a0,v1,4
    2e88:	afc40020 	sw	a0,32(s8)
    2e8c:	8c630000 	lw	v1,0(v1)
    2e90:	00000000 	nop
    2e94:	ac430000 	sw	v1,0(v0)
    2e98:	8fc20024 	lw	v0,36(s8)
    2e9c:	00000000 	nop
    2ea0:	24430004 	addiu	v1,v0,4
    2ea4:	afc30024 	sw	v1,36(s8)
    2ea8:	8fc30020 	lw	v1,32(s8)
    2eac:	00000000 	nop
    2eb0:	24640004 	addiu	a0,v1,4
    2eb4:	afc40020 	sw	a0,32(s8)
    2eb8:	8c630000 	lw	v1,0(v1)
    2ebc:	00000000 	nop
    2ec0:	ac430000 	sw	v1,0(v0)
    2ec4:	8fc20024 	lw	v0,36(s8)
    2ec8:	00000000 	nop
    2ecc:	24430004 	addiu	v1,v0,4
    2ed0:	afc30024 	sw	v1,36(s8)
    2ed4:	8fc30020 	lw	v1,32(s8)
    2ed8:	00000000 	nop
    2edc:	24640004 	addiu	a0,v1,4
    2ee0:	afc40020 	sw	a0,32(s8)
    2ee4:	8c630000 	lw	v1,0(v1)
    2ee8:	00000000 	nop
    2eec:	ac430000 	sw	v1,0(v0)
    2ef0:	8fc20024 	lw	v0,36(s8)
    2ef4:	00000000 	nop
    2ef8:	24430004 	addiu	v1,v0,4
    2efc:	afc30024 	sw	v1,36(s8)
    2f00:	8fc30020 	lw	v1,32(s8)
    2f04:	00000000 	nop
    2f08:	24640004 	addiu	a0,v1,4
    2f0c:	afc40020 	sw	a0,32(s8)
    2f10:	8c630000 	lw	v1,0(v1)
    2f14:	00000000 	nop
    2f18:	ac430000 	sw	v1,0(v0)
    2f1c:	8fc20020 	lw	v0,32(s8)
    2f20:	00000000 	nop
    2f24:	8c430000 	lw	v1,0(v0)
    2f28:	8fc20024 	lw	v0,36(s8)
    2f2c:	00000000 	nop
    2f30:	ac430000 	sw	v1,0(v0)
    2f34:	08000bd4 	j	2f50 <_realloc_r+0x670>
    2f38:	00000000 	nop
    2f3c:	8fc4005c 	lw	a0,92(s8)
    2f40:	8fc50084 	lw	a1,132(s8)
    2f44:	8fc60060 	lw	a2,96(s8)
    2f48:	0c000969 	jal	25a4 <memmove>
    2f4c:	00000000 	nop
    2f50:	3c020000 	lui	v0,0x0
    2f54:	24427428 	addiu	v0,v0,29736
    2f58:	8fc40010 	lw	a0,16(s8)
    2f5c:	8fc30048 	lw	v1,72(s8)
    2f60:	00000000 	nop
    2f64:	00831821 	addu	v1,a0,v1
    2f68:	ac430008 	sw	v1,8(v0)
    2f6c:	3c020000 	lui	v0,0x0
    2f70:	24427428 	addiu	v0,v0,29736
    2f74:	8c420008 	lw	v0,8(v0)
    2f78:	8fc40014 	lw	a0,20(s8)
    2f7c:	8fc30048 	lw	v1,72(s8)
    2f80:	00000000 	nop
    2f84:	00831823 	subu	v1,a0,v1
    2f88:	34630001 	ori	v1,v1,0x1
    2f8c:	ac430004 	sw	v1,4(v0)
    2f90:	8fc20010 	lw	v0,16(s8)
    2f94:	00000000 	nop
    2f98:	8c420004 	lw	v0,4(v0)
    2f9c:	00000000 	nop
    2fa0:	30430001 	andi	v1,v0,0x1
    2fa4:	8fc20048 	lw	v0,72(s8)
    2fa8:	00000000 	nop
    2fac:	00621825 	or	v1,v1,v0
    2fb0:	8fc20010 	lw	v0,16(s8)
    2fb4:	00000000 	nop
    2fb8:	ac430004 	sw	v1,4(v0)
    2fbc:	8fc40080 	lw	a0,128(s8)
    2fc0:	0c000a2f 	jal	28bc <__malloc_unlock>
    2fc4:	00000000 	nop
    2fc8:	8fc2005c 	lw	v0,92(s8)
    2fcc:	08000e77 	j	39dc <_realloc_r+0x10fc>
    2fd0:	00000000 	nop
    2fd4:	8fc3001c 	lw	v1,28(s8)
    2fd8:	8fc20058 	lw	v0,88(s8)
    2fdc:	00000000 	nop
    2fe0:	00621821 	addu	v1,v1,v0
    2fe4:	8fc20014 	lw	v0,20(s8)
    2fe8:	00000000 	nop
    2fec:	00621021 	addu	v0,v1,v0
    2ff0:	00401821 	move	v1,v0
    2ff4:	8fc20048 	lw	v0,72(s8)
    2ff8:	00000000 	nop
    2ffc:	0062102a 	slt	v0,v1,v0
    3000:	144000b9 	bnez	v0,32e8 <_realloc_r+0xa08>
    3004:	00000000 	nop
    3008:	8fc20018 	lw	v0,24(s8)
    300c:	00000000 	nop
    3010:	8c42000c 	lw	v0,12(v0)
    3014:	00000000 	nop
    3018:	afc2004c 	sw	v0,76(s8)
    301c:	8fc20018 	lw	v0,24(s8)
    3020:	00000000 	nop
    3024:	8c420008 	lw	v0,8(v0)
    3028:	00000000 	nop
    302c:	afc20050 	sw	v0,80(s8)
    3030:	8fc20050 	lw	v0,80(s8)
    3034:	8fc3004c 	lw	v1,76(s8)
    3038:	00000000 	nop
    303c:	ac43000c 	sw	v1,12(v0)
    3040:	8fc2004c 	lw	v0,76(s8)
    3044:	8fc30050 	lw	v1,80(s8)
    3048:	00000000 	nop
    304c:	ac430008 	sw	v1,8(v0)
    3050:	8fc20054 	lw	v0,84(s8)
    3054:	00000000 	nop
    3058:	8c42000c 	lw	v0,12(v0)
    305c:	00000000 	nop
    3060:	afc2004c 	sw	v0,76(s8)
    3064:	8fc20054 	lw	v0,84(s8)
    3068:	00000000 	nop
    306c:	8c420008 	lw	v0,8(v0)
    3070:	00000000 	nop
    3074:	afc20050 	sw	v0,80(s8)
    3078:	8fc20050 	lw	v0,80(s8)
    307c:	8fc3004c 	lw	v1,76(s8)
    3080:	00000000 	nop
    3084:	ac43000c 	sw	v1,12(v0)
    3088:	8fc2004c 	lw	v0,76(s8)
    308c:	8fc30050 	lw	v1,80(s8)
    3090:	00000000 	nop
    3094:	ac430008 	sw	v1,8(v0)
    3098:	8fc20054 	lw	v0,84(s8)
    309c:	00000000 	nop
    30a0:	afc20010 	sw	v0,16(s8)
    30a4:	8fc3001c 	lw	v1,28(s8)
    30a8:	8fc20058 	lw	v0,88(s8)
    30ac:	00000000 	nop
    30b0:	00621021 	addu	v0,v1,v0
    30b4:	8fc30014 	lw	v1,20(s8)
    30b8:	00000000 	nop
    30bc:	00621021 	addu	v0,v1,v0
    30c0:	afc20014 	sw	v0,20(s8)
    30c4:	8fc20010 	lw	v0,16(s8)
    30c8:	00000000 	nop
    30cc:	24420008 	addiu	v0,v0,8
    30d0:	afc2005c 	sw	v0,92(s8)
    30d4:	8fc20044 	lw	v0,68(s8)
    30d8:	00000000 	nop
    30dc:	2442fffc 	addiu	v0,v0,-4
    30e0:	afc20064 	sw	v0,100(s8)
    30e4:	8fc20064 	lw	v0,100(s8)
    30e8:	00000000 	nop
    30ec:	2c420025 	sltiu	v0,v0,37
    30f0:	10400076 	beqz	v0,32cc <_realloc_r+0x9ec>
    30f4:	00000000 	nop
    30f8:	8fc20084 	lw	v0,132(s8)
    30fc:	00000000 	nop
    3100:	afc20028 	sw	v0,40(s8)
    3104:	8fc2005c 	lw	v0,92(s8)
    3108:	00000000 	nop
    310c:	afc2002c 	sw	v0,44(s8)
    3110:	8fc20064 	lw	v0,100(s8)
    3114:	00000000 	nop
    3118:	2c420014 	sltiu	v0,v0,20
    311c:	1440004d 	bnez	v0,3254 <_realloc_r+0x974>
    3120:	00000000 	nop
    3124:	8fc2002c 	lw	v0,44(s8)
    3128:	00000000 	nop
    312c:	24430004 	addiu	v1,v0,4
    3130:	afc3002c 	sw	v1,44(s8)
    3134:	8fc30028 	lw	v1,40(s8)
    3138:	00000000 	nop
    313c:	24640004 	addiu	a0,v1,4
    3140:	afc40028 	sw	a0,40(s8)
    3144:	8c630000 	lw	v1,0(v1)
    3148:	00000000 	nop
    314c:	ac430000 	sw	v1,0(v0)
    3150:	8fc2002c 	lw	v0,44(s8)
    3154:	00000000 	nop
    3158:	24430004 	addiu	v1,v0,4
    315c:	afc3002c 	sw	v1,44(s8)
    3160:	8fc30028 	lw	v1,40(s8)
    3164:	00000000 	nop
    3168:	24640004 	addiu	a0,v1,4
    316c:	afc40028 	sw	a0,40(s8)
    3170:	8c630000 	lw	v1,0(v1)
    3174:	00000000 	nop
    3178:	ac430000 	sw	v1,0(v0)
    317c:	8fc20064 	lw	v0,100(s8)
    3180:	00000000 	nop
    3184:	2c42001c 	sltiu	v0,v0,28
    3188:	14400032 	bnez	v0,3254 <_realloc_r+0x974>
    318c:	00000000 	nop
    3190:	8fc2002c 	lw	v0,44(s8)
    3194:	00000000 	nop
    3198:	24430004 	addiu	v1,v0,4
    319c:	afc3002c 	sw	v1,44(s8)
    31a0:	8fc30028 	lw	v1,40(s8)
    31a4:	00000000 	nop
    31a8:	24640004 	addiu	a0,v1,4
    31ac:	afc40028 	sw	a0,40(s8)
    31b0:	8c630000 	lw	v1,0(v1)
    31b4:	00000000 	nop
    31b8:	ac430000 	sw	v1,0(v0)
    31bc:	8fc2002c 	lw	v0,44(s8)
    31c0:	00000000 	nop
    31c4:	24430004 	addiu	v1,v0,4
    31c8:	afc3002c 	sw	v1,44(s8)
    31cc:	8fc30028 	lw	v1,40(s8)
    31d0:	00000000 	nop
    31d4:	24640004 	addiu	a0,v1,4
    31d8:	afc40028 	sw	a0,40(s8)
    31dc:	8c630000 	lw	v1,0(v1)
    31e0:	00000000 	nop
    31e4:	ac430000 	sw	v1,0(v0)
    31e8:	8fc20064 	lw	v0,100(s8)
    31ec:	00000000 	nop
    31f0:	2c420024 	sltiu	v0,v0,36
    31f4:	14400017 	bnez	v0,3254 <_realloc_r+0x974>
    31f8:	00000000 	nop
    31fc:	8fc2002c 	lw	v0,44(s8)
    3200:	00000000 	nop
    3204:	24430004 	addiu	v1,v0,4
    3208:	afc3002c 	sw	v1,44(s8)
    320c:	8fc30028 	lw	v1,40(s8)
    3210:	00000000 	nop
    3214:	24640004 	addiu	a0,v1,4
    3218:	afc40028 	sw	a0,40(s8)
    321c:	8c630000 	lw	v1,0(v1)
    3220:	00000000 	nop
    3224:	ac430000 	sw	v1,0(v0)
    3228:	8fc2002c 	lw	v0,44(s8)
    322c:	00000000 	nop
    3230:	24430004 	addiu	v1,v0,4
    3234:	afc3002c 	sw	v1,44(s8)
    3238:	8fc30028 	lw	v1,40(s8)
    323c:	00000000 	nop
    3240:	24640004 	addiu	a0,v1,4
    3244:	afc40028 	sw	a0,40(s8)
    3248:	8c630000 	lw	v1,0(v1)
    324c:	00000000 	nop
    3250:	ac430000 	sw	v1,0(v0)
    3254:	8fc2002c 	lw	v0,44(s8)
    3258:	00000000 	nop
    325c:	24430004 	addiu	v1,v0,4
    3260:	afc3002c 	sw	v1,44(s8)
    3264:	8fc30028 	lw	v1,40(s8)
    3268:	00000000 	nop
    326c:	24640004 	addiu	a0,v1,4
    3270:	afc40028 	sw	a0,40(s8)
    3274:	8c630000 	lw	v1,0(v1)
    3278:	00000000 	nop
    327c:	ac430000 	sw	v1,0(v0)
    3280:	8fc2002c 	lw	v0,44(s8)
    3284:	00000000 	nop
    3288:	24430004 	addiu	v1,v0,4
    328c:	afc3002c 	sw	v1,44(s8)
    3290:	8fc30028 	lw	v1,40(s8)
    3294:	00000000 	nop
    3298:	24640004 	addiu	a0,v1,4
    329c:	afc40028 	sw	a0,40(s8)
    32a0:	8c630000 	lw	v1,0(v1)
    32a4:	00000000 	nop
    32a8:	ac430000 	sw	v1,0(v0)
    32ac:	8fc20028 	lw	v0,40(s8)
    32b0:	00000000 	nop
    32b4:	8c430000 	lw	v1,0(v0)
    32b8:	8fc2002c 	lw	v0,44(s8)
    32bc:	00000000 	nop
    32c0:	ac430000 	sw	v1,0(v0)
    32c4:	08000e25 	j	3894 <_realloc_r+0xfb4>
    32c8:	00000000 	nop
    32cc:	8fc4005c 	lw	a0,92(s8)
    32d0:	8fc50084 	lw	a1,132(s8)
    32d4:	8fc60064 	lw	a2,100(s8)
    32d8:	0c000969 	jal	25a4 <memmove>
    32dc:	00000000 	nop
    32e0:	08000e25 	j	3894 <_realloc_r+0xfb4>
    32e4:	00000000 	nop
    32e8:	8fc20054 	lw	v0,84(s8)
    32ec:	00000000 	nop
    32f0:	104000ae 	beqz	v0,35ac <_realloc_r+0xccc>
    32f4:	00000000 	nop
    32f8:	8fc30058 	lw	v1,88(s8)
    32fc:	8fc20014 	lw	v0,20(s8)
    3300:	00000000 	nop
    3304:	00621021 	addu	v0,v1,v0
    3308:	00401821 	move	v1,v0
    330c:	8fc20048 	lw	v0,72(s8)
    3310:	00000000 	nop
    3314:	0062102a 	slt	v0,v1,v0
    3318:	144000a4 	bnez	v0,35ac <_realloc_r+0xccc>
    331c:	00000000 	nop
    3320:	8fc20054 	lw	v0,84(s8)
    3324:	00000000 	nop
    3328:	8c42000c 	lw	v0,12(v0)
    332c:	00000000 	nop
    3330:	afc2004c 	sw	v0,76(s8)
    3334:	8fc20054 	lw	v0,84(s8)
    3338:	00000000 	nop
    333c:	8c420008 	lw	v0,8(v0)
    3340:	00000000 	nop
    3344:	afc20050 	sw	v0,80(s8)
    3348:	8fc20050 	lw	v0,80(s8)
    334c:	8fc3004c 	lw	v1,76(s8)
    3350:	00000000 	nop
    3354:	ac43000c 	sw	v1,12(v0)
    3358:	8fc2004c 	lw	v0,76(s8)
    335c:	8fc30050 	lw	v1,80(s8)
    3360:	00000000 	nop
    3364:	ac430008 	sw	v1,8(v0)
    3368:	8fc20054 	lw	v0,84(s8)
    336c:	00000000 	nop
    3370:	afc20010 	sw	v0,16(s8)
    3374:	8fc30014 	lw	v1,20(s8)
    3378:	8fc20058 	lw	v0,88(s8)
    337c:	00000000 	nop
    3380:	00621021 	addu	v0,v1,v0
    3384:	afc20014 	sw	v0,20(s8)
    3388:	8fc20010 	lw	v0,16(s8)
    338c:	00000000 	nop
    3390:	24420008 	addiu	v0,v0,8
    3394:	afc2005c 	sw	v0,92(s8)
    3398:	8fc20044 	lw	v0,68(s8)
    339c:	00000000 	nop
    33a0:	2442fffc 	addiu	v0,v0,-4
    33a4:	afc20068 	sw	v0,104(s8)
    33a8:	8fc20068 	lw	v0,104(s8)
    33ac:	00000000 	nop
    33b0:	2c420025 	sltiu	v0,v0,37
    33b4:	10400076 	beqz	v0,3590 <_realloc_r+0xcb0>
    33b8:	00000000 	nop
    33bc:	8fc20084 	lw	v0,132(s8)
    33c0:	00000000 	nop
    33c4:	afc20030 	sw	v0,48(s8)
    33c8:	8fc2005c 	lw	v0,92(s8)
    33cc:	00000000 	nop
    33d0:	afc20034 	sw	v0,52(s8)
    33d4:	8fc20068 	lw	v0,104(s8)
    33d8:	00000000 	nop
    33dc:	2c420014 	sltiu	v0,v0,20
    33e0:	1440004d 	bnez	v0,3518 <_realloc_r+0xc38>
    33e4:	00000000 	nop
    33e8:	8fc20034 	lw	v0,52(s8)
    33ec:	00000000 	nop
    33f0:	24430004 	addiu	v1,v0,4
    33f4:	afc30034 	sw	v1,52(s8)
    33f8:	8fc30030 	lw	v1,48(s8)
    33fc:	00000000 	nop
    3400:	24640004 	addiu	a0,v1,4
    3404:	afc40030 	sw	a0,48(s8)
    3408:	8c630000 	lw	v1,0(v1)
    340c:	00000000 	nop
    3410:	ac430000 	sw	v1,0(v0)
    3414:	8fc20034 	lw	v0,52(s8)
    3418:	00000000 	nop
    341c:	24430004 	addiu	v1,v0,4
    3420:	afc30034 	sw	v1,52(s8)
    3424:	8fc30030 	lw	v1,48(s8)
    3428:	00000000 	nop
    342c:	24640004 	addiu	a0,v1,4
    3430:	afc40030 	sw	a0,48(s8)
    3434:	8c630000 	lw	v1,0(v1)
    3438:	00000000 	nop
    343c:	ac430000 	sw	v1,0(v0)
    3440:	8fc20068 	lw	v0,104(s8)
    3444:	00000000 	nop
    3448:	2c42001c 	sltiu	v0,v0,28
    344c:	14400032 	bnez	v0,3518 <_realloc_r+0xc38>
    3450:	00000000 	nop
    3454:	8fc20034 	lw	v0,52(s8)
    3458:	00000000 	nop
    345c:	24430004 	addiu	v1,v0,4
    3460:	afc30034 	sw	v1,52(s8)
    3464:	8fc30030 	lw	v1,48(s8)
    3468:	00000000 	nop
    346c:	24640004 	addiu	a0,v1,4
    3470:	afc40030 	sw	a0,48(s8)
    3474:	8c630000 	lw	v1,0(v1)
    3478:	00000000 	nop
    347c:	ac430000 	sw	v1,0(v0)
    3480:	8fc20034 	lw	v0,52(s8)
    3484:	00000000 	nop
    3488:	24430004 	addiu	v1,v0,4
    348c:	afc30034 	sw	v1,52(s8)
    3490:	8fc30030 	lw	v1,48(s8)
    3494:	00000000 	nop
    3498:	24640004 	addiu	a0,v1,4
    349c:	afc40030 	sw	a0,48(s8)
    34a0:	8c630000 	lw	v1,0(v1)
    34a4:	00000000 	nop
    34a8:	ac430000 	sw	v1,0(v0)
    34ac:	8fc20068 	lw	v0,104(s8)
    34b0:	00000000 	nop
    34b4:	2c420024 	sltiu	v0,v0,36
    34b8:	14400017 	bnez	v0,3518 <_realloc_r+0xc38>
    34bc:	00000000 	nop
    34c0:	8fc20034 	lw	v0,52(s8)
    34c4:	00000000 	nop
    34c8:	24430004 	addiu	v1,v0,4
    34cc:	afc30034 	sw	v1,52(s8)
    34d0:	8fc30030 	lw	v1,48(s8)
    34d4:	00000000 	nop
    34d8:	24640004 	addiu	a0,v1,4
    34dc:	afc40030 	sw	a0,48(s8)
    34e0:	8c630000 	lw	v1,0(v1)
    34e4:	00000000 	nop
    34e8:	ac430000 	sw	v1,0(v0)
    34ec:	8fc20034 	lw	v0,52(s8)
    34f0:	00000000 	nop
    34f4:	24430004 	addiu	v1,v0,4
    34f8:	afc30034 	sw	v1,52(s8)
    34fc:	8fc30030 	lw	v1,48(s8)
    3500:	00000000 	nop
    3504:	24640004 	addiu	a0,v1,4
    3508:	afc40030 	sw	a0,48(s8)
    350c:	8c630000 	lw	v1,0(v1)
    3510:	00000000 	nop
    3514:	ac430000 	sw	v1,0(v0)
    3518:	8fc20034 	lw	v0,52(s8)
    351c:	00000000 	nop
    3520:	24430004 	addiu	v1,v0,4
    3524:	afc30034 	sw	v1,52(s8)
    3528:	8fc30030 	lw	v1,48(s8)
    352c:	00000000 	nop
    3530:	24640004 	addiu	a0,v1,4
    3534:	afc40030 	sw	a0,48(s8)
    3538:	8c630000 	lw	v1,0(v1)
    353c:	00000000 	nop
    3540:	ac430000 	sw	v1,0(v0)
    3544:	8fc20034 	lw	v0,52(s8)
    3548:	00000000 	nop
    354c:	24430004 	addiu	v1,v0,4
    3550:	afc30034 	sw	v1,52(s8)
    3554:	8fc30030 	lw	v1,48(s8)
    3558:	00000000 	nop
    355c:	24640004 	addiu	a0,v1,4
    3560:	afc40030 	sw	a0,48(s8)
    3564:	8c630000 	lw	v1,0(v1)
    3568:	00000000 	nop
    356c:	ac430000 	sw	v1,0(v0)
    3570:	8fc20030 	lw	v0,48(s8)
    3574:	00000000 	nop
    3578:	8c430000 	lw	v1,0(v0)
    357c:	8fc20034 	lw	v0,52(s8)
    3580:	00000000 	nop
    3584:	ac430000 	sw	v1,0(v0)
    3588:	08000e25 	j	3894 <_realloc_r+0xfb4>
    358c:	00000000 	nop
    3590:	8fc4005c 	lw	a0,92(s8)
    3594:	8fc50084 	lw	a1,132(s8)
    3598:	8fc60068 	lw	a2,104(s8)
    359c:	0c000969 	jal	25a4 <memmove>
    35a0:	00000000 	nop
    35a4:	08000e25 	j	3894 <_realloc_r+0xfb4>
    35a8:	00000000 	nop
    35ac:	8fc40080 	lw	a0,128(s8)
    35b0:	8fc50088 	lw	a1,136(s8)
    35b4:	0c0003e4 	jal	f90 <_malloc_r>
    35b8:	00000000 	nop
    35bc:	afc2005c 	sw	v0,92(s8)
    35c0:	8fc2005c 	lw	v0,92(s8)
    35c4:	00000000 	nop
    35c8:	14400007 	bnez	v0,35e8 <_realloc_r+0xd08>
    35cc:	00000000 	nop
    35d0:	8fc40080 	lw	a0,128(s8)
    35d4:	0c000a2f 	jal	28bc <__malloc_unlock>
    35d8:	00000000 	nop
    35dc:	00001021 	move	v0,zero
    35e0:	08000e77 	j	39dc <_realloc_r+0x10fc>
    35e4:	00000000 	nop
    35e8:	8fc2005c 	lw	v0,92(s8)
    35ec:	00000000 	nop
    35f0:	2442fff8 	addiu	v0,v0,-8
    35f4:	afc20010 	sw	v0,16(s8)
    35f8:	8fc20040 	lw	v0,64(s8)
    35fc:	00000000 	nop
    3600:	8c430004 	lw	v1,4(v0)
    3604:	2402fffe 	li	v0,-2
    3608:	00621024 	and	v0,v1,v0
    360c:	8fc30040 	lw	v1,64(s8)
    3610:	00000000 	nop
    3614:	00621021 	addu	v0,v1,v0
    3618:	8fc30010 	lw	v1,16(s8)
    361c:	00000000 	nop
    3620:	1462000f 	bne	v1,v0,3660 <_realloc_r+0xd80>
    3624:	00000000 	nop
    3628:	8fc20010 	lw	v0,16(s8)
    362c:	00000000 	nop
    3630:	8c430004 	lw	v1,4(v0)
    3634:	2402fffc 	li	v0,-4
    3638:	00621024 	and	v0,v1,v0
    363c:	8fc30014 	lw	v1,20(s8)
    3640:	00000000 	nop
    3644:	00621021 	addu	v0,v1,v0
    3648:	afc20014 	sw	v0,20(s8)
    364c:	8fc20040 	lw	v0,64(s8)
    3650:	00000000 	nop
    3654:	afc20010 	sw	v0,16(s8)
    3658:	08000e25 	j	3894 <_realloc_r+0xfb4>
    365c:	00000000 	nop
    3660:	8fc20044 	lw	v0,68(s8)
    3664:	00000000 	nop
    3668:	2442fffc 	addiu	v0,v0,-4
    366c:	afc2006c 	sw	v0,108(s8)
    3670:	8fc2006c 	lw	v0,108(s8)
    3674:	00000000 	nop
    3678:	2c420025 	sltiu	v0,v0,37
    367c:	10400076 	beqz	v0,3858 <_realloc_r+0xf78>
    3680:	00000000 	nop
    3684:	8fc20084 	lw	v0,132(s8)
    3688:	00000000 	nop
    368c:	afc20038 	sw	v0,56(s8)
    3690:	8fc2005c 	lw	v0,92(s8)
    3694:	00000000 	nop
    3698:	afc2003c 	sw	v0,60(s8)
    369c:	8fc2006c 	lw	v0,108(s8)
    36a0:	00000000 	nop
    36a4:	2c420014 	sltiu	v0,v0,20
    36a8:	1440004d 	bnez	v0,37e0 <_realloc_r+0xf00>
    36ac:	00000000 	nop
    36b0:	8fc2003c 	lw	v0,60(s8)
    36b4:	00000000 	nop
    36b8:	24430004 	addiu	v1,v0,4
    36bc:	afc3003c 	sw	v1,60(s8)
    36c0:	8fc30038 	lw	v1,56(s8)
    36c4:	00000000 	nop
    36c8:	24640004 	addiu	a0,v1,4
    36cc:	afc40038 	sw	a0,56(s8)
    36d0:	8c630000 	lw	v1,0(v1)
    36d4:	00000000 	nop
    36d8:	ac430000 	sw	v1,0(v0)
    36dc:	8fc2003c 	lw	v0,60(s8)
    36e0:	00000000 	nop
    36e4:	24430004 	addiu	v1,v0,4
    36e8:	afc3003c 	sw	v1,60(s8)
    36ec:	8fc30038 	lw	v1,56(s8)
    36f0:	00000000 	nop
    36f4:	24640004 	addiu	a0,v1,4
    36f8:	afc40038 	sw	a0,56(s8)
    36fc:	8c630000 	lw	v1,0(v1)
    3700:	00000000 	nop
    3704:	ac430000 	sw	v1,0(v0)
    3708:	8fc2006c 	lw	v0,108(s8)
    370c:	00000000 	nop
    3710:	2c42001c 	sltiu	v0,v0,28
    3714:	14400032 	bnez	v0,37e0 <_realloc_r+0xf00>
    3718:	00000000 	nop
    371c:	8fc2003c 	lw	v0,60(s8)
    3720:	00000000 	nop
    3724:	24430004 	addiu	v1,v0,4
    3728:	afc3003c 	sw	v1,60(s8)
    372c:	8fc30038 	lw	v1,56(s8)
    3730:	00000000 	nop
    3734:	24640004 	addiu	a0,v1,4
    3738:	afc40038 	sw	a0,56(s8)
    373c:	8c630000 	lw	v1,0(v1)
    3740:	00000000 	nop
    3744:	ac430000 	sw	v1,0(v0)
    3748:	8fc2003c 	lw	v0,60(s8)
    374c:	00000000 	nop
    3750:	24430004 	addiu	v1,v0,4
    3754:	afc3003c 	sw	v1,60(s8)
    3758:	8fc30038 	lw	v1,56(s8)
    375c:	00000000 	nop
    3760:	24640004 	addiu	a0,v1,4
    3764:	afc40038 	sw	a0,56(s8)
    3768:	8c630000 	lw	v1,0(v1)
    376c:	00000000 	nop
    3770:	ac430000 	sw	v1,0(v0)
    3774:	8fc2006c 	lw	v0,108(s8)
    3778:	00000000 	nop
    377c:	2c420024 	sltiu	v0,v0,36
    3780:	14400017 	bnez	v0,37e0 <_realloc_r+0xf00>
    3784:	00000000 	nop
    3788:	8fc2003c 	lw	v0,60(s8)
    378c:	00000000 	nop
    3790:	24430004 	addiu	v1,v0,4
    3794:	afc3003c 	sw	v1,60(s8)
    3798:	8fc30038 	lw	v1,56(s8)
    379c:	00000000 	nop
    37a0:	24640004 	addiu	a0,v1,4
    37a4:	afc40038 	sw	a0,56(s8)
    37a8:	8c630000 	lw	v1,0(v1)
    37ac:	00000000 	nop
    37b0:	ac430000 	sw	v1,0(v0)
    37b4:	8fc2003c 	lw	v0,60(s8)
    37b8:	00000000 	nop
    37bc:	24430004 	addiu	v1,v0,4
    37c0:	afc3003c 	sw	v1,60(s8)
    37c4:	8fc30038 	lw	v1,56(s8)
    37c8:	00000000 	nop
    37cc:	24640004 	addiu	a0,v1,4
    37d0:	afc40038 	sw	a0,56(s8)
    37d4:	8c630000 	lw	v1,0(v1)
    37d8:	00000000 	nop
    37dc:	ac430000 	sw	v1,0(v0)
    37e0:	8fc2003c 	lw	v0,60(s8)
    37e4:	00000000 	nop
    37e8:	24430004 	addiu	v1,v0,4
    37ec:	afc3003c 	sw	v1,60(s8)
    37f0:	8fc30038 	lw	v1,56(s8)
    37f4:	00000000 	nop
    37f8:	24640004 	addiu	a0,v1,4
    37fc:	afc40038 	sw	a0,56(s8)
    3800:	8c630000 	lw	v1,0(v1)
    3804:	00000000 	nop
    3808:	ac430000 	sw	v1,0(v0)
    380c:	8fc2003c 	lw	v0,60(s8)
    3810:	00000000 	nop
    3814:	24430004 	addiu	v1,v0,4
    3818:	afc3003c 	sw	v1,60(s8)
    381c:	8fc30038 	lw	v1,56(s8)
    3820:	00000000 	nop
    3824:	24640004 	addiu	a0,v1,4
    3828:	afc40038 	sw	a0,56(s8)
    382c:	8c630000 	lw	v1,0(v1)
    3830:	00000000 	nop
    3834:	ac430000 	sw	v1,0(v0)
    3838:	8fc20038 	lw	v0,56(s8)
    383c:	00000000 	nop
    3840:	8c430000 	lw	v1,0(v0)
    3844:	8fc2003c 	lw	v0,60(s8)
    3848:	00000000 	nop
    384c:	ac430000 	sw	v1,0(v0)
    3850:	08000e1b 	j	386c <_realloc_r+0xf8c>
    3854:	00000000 	nop
    3858:	8fc4005c 	lw	a0,92(s8)
    385c:	8fc50084 	lw	a1,132(s8)
    3860:	8fc6006c 	lw	a2,108(s8)
    3864:	0c000969 	jal	25a4 <memmove>
    3868:	00000000 	nop
    386c:	8fc40080 	lw	a0,128(s8)
    3870:	8fc50084 	lw	a1,132(s8)
    3874:	0c00126d 	jal	49b4 <_free_r>
    3878:	00000000 	nop
    387c:	8fc40080 	lw	a0,128(s8)
    3880:	0c000a2f 	jal	28bc <__malloc_unlock>
    3884:	00000000 	nop
    3888:	8fc2005c 	lw	v0,92(s8)
    388c:	08000e77 	j	39dc <_realloc_r+0x10fc>
    3890:	00000000 	nop
    3894:	8fc30014 	lw	v1,20(s8)
    3898:	8fc20048 	lw	v0,72(s8)
    389c:	00000000 	nop
    38a0:	00621023 	subu	v0,v1,v0
    38a4:	afc20070 	sw	v0,112(s8)
    38a8:	8fc20070 	lw	v0,112(s8)
    38ac:	00000000 	nop
    38b0:	2c420010 	sltiu	v0,v0,16
    38b4:	1440002c 	bnez	v0,3968 <_realloc_r+0x1088>
    38b8:	00000000 	nop
    38bc:	8fc30010 	lw	v1,16(s8)
    38c0:	8fc20048 	lw	v0,72(s8)
    38c4:	00000000 	nop
    38c8:	00621021 	addu	v0,v1,v0
    38cc:	afc20074 	sw	v0,116(s8)
    38d0:	8fc20010 	lw	v0,16(s8)
    38d4:	00000000 	nop
    38d8:	8c420004 	lw	v0,4(v0)
    38dc:	00000000 	nop
    38e0:	30430001 	andi	v1,v0,0x1
    38e4:	8fc20048 	lw	v0,72(s8)
    38e8:	00000000 	nop
    38ec:	00621825 	or	v1,v1,v0
    38f0:	8fc20010 	lw	v0,16(s8)
    38f4:	00000000 	nop
    38f8:	ac430004 	sw	v1,4(v0)
    38fc:	8fc20070 	lw	v0,112(s8)
    3900:	00000000 	nop
    3904:	34430001 	ori	v1,v0,0x1
    3908:	8fc20074 	lw	v0,116(s8)
    390c:	00000000 	nop
    3910:	ac430004 	sw	v1,4(v0)
    3914:	8fc30074 	lw	v1,116(s8)
    3918:	8fc20070 	lw	v0,112(s8)
    391c:	00000000 	nop
    3920:	00621021 	addu	v0,v1,v0
    3924:	8fc40074 	lw	a0,116(s8)
    3928:	8fc30070 	lw	v1,112(s8)
    392c:	00000000 	nop
    3930:	00831821 	addu	v1,a0,v1
    3934:	8c630004 	lw	v1,4(v1)
    3938:	00000000 	nop
    393c:	34630001 	ori	v1,v1,0x1
    3940:	ac430004 	sw	v1,4(v0)
    3944:	8fc20074 	lw	v0,116(s8)
    3948:	00000000 	nop
    394c:	24420008 	addiu	v0,v0,8
    3950:	8fc40080 	lw	a0,128(s8)
    3954:	00402821 	move	a1,v0
    3958:	0c00126d 	jal	49b4 <_free_r>
    395c:	00000000 	nop
    3960:	08000e71 	j	39c4 <_realloc_r+0x10e4>
    3964:	00000000 	nop
    3968:	8fc20010 	lw	v0,16(s8)
    396c:	00000000 	nop
    3970:	8c420004 	lw	v0,4(v0)
    3974:	00000000 	nop
    3978:	30430001 	andi	v1,v0,0x1
    397c:	8fc20014 	lw	v0,20(s8)
    3980:	00000000 	nop
    3984:	00621825 	or	v1,v1,v0
    3988:	8fc20010 	lw	v0,16(s8)
    398c:	00000000 	nop
    3990:	ac430004 	sw	v1,4(v0)
    3994:	8fc30010 	lw	v1,16(s8)
    3998:	8fc20014 	lw	v0,20(s8)
    399c:	00000000 	nop
    39a0:	00621021 	addu	v0,v1,v0
    39a4:	8fc40010 	lw	a0,16(s8)
    39a8:	8fc30014 	lw	v1,20(s8)
    39ac:	00000000 	nop
    39b0:	00831821 	addu	v1,a0,v1
    39b4:	8c630004 	lw	v1,4(v1)
    39b8:	00000000 	nop
    39bc:	34630001 	ori	v1,v1,0x1
    39c0:	ac430004 	sw	v1,4(v0)
    39c4:	8fc40080 	lw	a0,128(s8)
    39c8:	0c000a2f 	jal	28bc <__malloc_unlock>
    39cc:	00000000 	nop
    39d0:	8fc20010 	lw	v0,16(s8)
    39d4:	00000000 	nop
    39d8:	24420008 	addiu	v0,v0,8
    39dc:	03c0e821 	move	sp,s8
    39e0:	8fbf007c 	lw	ra,124(sp)
    39e4:	8fbe0078 	lw	s8,120(sp)
    39e8:	27bd0080 	addiu	sp,sp,128
    39ec:	03e00008 	jr	ra
    39f0:	00000000 	nop

000039f4 <_sbrk_r>:
    39f4:	27bdffe0 	addiu	sp,sp,-32
    39f8:	afbf001c 	sw	ra,28(sp)
    39fc:	afbe0018 	sw	s8,24(sp)
    3a00:	03a0f021 	move	s8,sp
    3a04:	afc40020 	sw	a0,32(s8)
    3a08:	afc50024 	sw	a1,36(s8)
    3a0c:	af808038 	sw	zero,-32712(gp)
    3a10:	8fc40024 	lw	a0,36(s8)
    3a14:	0c001981 	jal	6604 <sbrk>
    3a18:	00000000 	nop
    3a1c:	afc20010 	sw	v0,16(s8)
    3a20:	8fc30010 	lw	v1,16(s8)
    3a24:	2402ffff 	li	v0,-1
    3a28:	14620009 	bne	v1,v0,3a50 <_sbrk_r+0x5c>
    3a2c:	00000000 	nop
    3a30:	8f828038 	lw	v0,-32712(gp)
    3a34:	00000000 	nop
    3a38:	10400005 	beqz	v0,3a50 <_sbrk_r+0x5c>
    3a3c:	00000000 	nop
    3a40:	8f838038 	lw	v1,-32712(gp)
    3a44:	8fc20020 	lw	v0,32(s8)
    3a48:	00000000 	nop
    3a4c:	ac430000 	sw	v1,0(v0)
    3a50:	8fc20010 	lw	v0,16(s8)
    3a54:	03c0e821 	move	sp,s8
    3a58:	8fbf001c 	lw	ra,28(sp)
    3a5c:	8fbe0018 	lw	s8,24(sp)
    3a60:	27bd0020 	addiu	sp,sp,32
    3a64:	03e00008 	jr	ra
    3a68:	00000000 	nop

00003a6c <__swsetup_r>:
    3a6c:	27bdffe0 	addiu	sp,sp,-32
    3a70:	afbf001c 	sw	ra,28(sp)
    3a74:	afbe0018 	sw	s8,24(sp)
    3a78:	afb00014 	sw	s0,20(sp)
    3a7c:	03a0f021 	move	s8,sp
    3a80:	afc40020 	sw	a0,32(s8)
    3a84:	00a08021 	move	s0,a1
    3a88:	8f828010 	lw	v0,-32752(gp)
    3a8c:	00000000 	nop
    3a90:	1040000c 	beqz	v0,3ac4 <__swsetup_r+0x58>
    3a94:	00000000 	nop
    3a98:	8f828010 	lw	v0,-32752(gp)
    3a9c:	00000000 	nop
    3aa0:	8c420038 	lw	v0,56(v0)
    3aa4:	00000000 	nop
    3aa8:	14400006 	bnez	v0,3ac4 <__swsetup_r+0x58>
    3aac:	00000000 	nop
    3ab0:	8f828010 	lw	v0,-32752(gp)
    3ab4:	00000000 	nop
    3ab8:	00402021 	move	a0,v0
    3abc:	0c0011c9 	jal	4724 <__sinit>
    3ac0:	00000000 	nop
    3ac4:	8602000c 	lh	v0,12(s0)
    3ac8:	00000000 	nop
    3acc:	3042ffff 	andi	v0,v0,0xffff
    3ad0:	30420008 	andi	v0,v0,0x8
    3ad4:	14400037 	bnez	v0,3bb4 <__swsetup_r+0x148>
    3ad8:	00000000 	nop
    3adc:	8602000c 	lh	v0,12(s0)
    3ae0:	00000000 	nop
    3ae4:	3042ffff 	andi	v0,v0,0xffff
    3ae8:	30420010 	andi	v0,v0,0x10
    3aec:	1440000d 	bnez	v0,3b24 <__swsetup_r+0xb8>
    3af0:	00000000 	nop
    3af4:	8fc20020 	lw	v0,32(s8)
    3af8:	24030009 	li	v1,9
    3afc:	ac430000 	sw	v1,0(v0)
    3b00:	8602000c 	lh	v0,12(s0)
    3b04:	00000000 	nop
    3b08:	34420040 	ori	v0,v0,0x40
    3b0c:	00021400 	sll	v0,v0,0x10
    3b10:	00021403 	sra	v0,v0,0x10
    3b14:	a602000c 	sh	v0,12(s0)
    3b18:	2402ffff 	li	v0,-1
    3b1c:	08000f2d 	j	3cb4 <__swsetup_r+0x248>
    3b20:	00000000 	nop
    3b24:	8602000c 	lh	v0,12(s0)
    3b28:	00000000 	nop
    3b2c:	3042ffff 	andi	v0,v0,0xffff
    3b30:	30420004 	andi	v0,v0,0x4
    3b34:	10400019 	beqz	v0,3b9c <__swsetup_r+0x130>
    3b38:	00000000 	nop
    3b3c:	8e020030 	lw	v0,48(s0)
    3b40:	00000000 	nop
    3b44:	1040000b 	beqz	v0,3b74 <__swsetup_r+0x108>
    3b48:	00000000 	nop
    3b4c:	8e030030 	lw	v1,48(s0)
    3b50:	26020040 	addiu	v0,s0,64
    3b54:	10620006 	beq	v1,v0,3b70 <__swsetup_r+0x104>
    3b58:	00000000 	nop
    3b5c:	8e020030 	lw	v0,48(s0)
    3b60:	8fc40020 	lw	a0,32(s8)
    3b64:	00402821 	move	a1,v0
    3b68:	0c00126d 	jal	49b4 <_free_r>
    3b6c:	00000000 	nop
    3b70:	ae000030 	sw	zero,48(s0)
    3b74:	8603000c 	lh	v1,12(s0)
    3b78:	2402ffdb 	li	v0,-37
    3b7c:	00621024 	and	v0,v1,v0
    3b80:	00021400 	sll	v0,v0,0x10
    3b84:	00021403 	sra	v0,v0,0x10
    3b88:	a602000c 	sh	v0,12(s0)
    3b8c:	ae000004 	sw	zero,4(s0)
    3b90:	8e020010 	lw	v0,16(s0)
    3b94:	00000000 	nop
    3b98:	ae020000 	sw	v0,0(s0)
    3b9c:	8602000c 	lh	v0,12(s0)
    3ba0:	00000000 	nop
    3ba4:	34420008 	ori	v0,v0,0x8
    3ba8:	00021400 	sll	v0,v0,0x10
    3bac:	00021403 	sra	v0,v0,0x10
    3bb0:	a602000c 	sh	v0,12(s0)
    3bb4:	8e020010 	lw	v0,16(s0)
    3bb8:	00000000 	nop
    3bbc:	14400011 	bnez	v0,3c04 <__swsetup_r+0x198>
    3bc0:	00000000 	nop
    3bc4:	8602000c 	lh	v0,12(s0)
    3bc8:	00000000 	nop
    3bcc:	3042ffff 	andi	v0,v0,0xffff
    3bd0:	30420200 	andi	v0,v0,0x200
    3bd4:	10400007 	beqz	v0,3bf4 <__swsetup_r+0x188>
    3bd8:	00000000 	nop
    3bdc:	8602000c 	lh	v0,12(s0)
    3be0:	00000000 	nop
    3be4:	3042ffff 	andi	v0,v0,0xffff
    3be8:	30420080 	andi	v0,v0,0x80
    3bec:	10400005 	beqz	v0,3c04 <__swsetup_r+0x198>
    3bf0:	00000000 	nop
    3bf4:	8fc40020 	lw	a0,32(s8)
    3bf8:	02002821 	move	a1,s0
    3bfc:	0c001559 	jal	5564 <__smakebuf_r>
    3c00:	00000000 	nop
    3c04:	8602000c 	lh	v0,12(s0)
    3c08:	00000000 	nop
    3c0c:	3042ffff 	andi	v0,v0,0xffff
    3c10:	30420001 	andi	v0,v0,0x1
    3c14:	10400008 	beqz	v0,3c38 <__swsetup_r+0x1cc>
    3c18:	00000000 	nop
    3c1c:	ae000008 	sw	zero,8(s0)
    3c20:	8e020014 	lw	v0,20(s0)
    3c24:	00000000 	nop
    3c28:	00021023 	negu	v0,v0
    3c2c:	ae020018 	sw	v0,24(s0)
    3c30:	08000f19 	j	3c64 <__swsetup_r+0x1f8>
    3c34:	00000000 	nop
    3c38:	8602000c 	lh	v0,12(s0)
    3c3c:	00000000 	nop
    3c40:	3042ffff 	andi	v0,v0,0xffff
    3c44:	30420002 	andi	v0,v0,0x2
    3c48:	14400004 	bnez	v0,3c5c <__swsetup_r+0x1f0>
    3c4c:	00000000 	nop
    3c50:	8e020014 	lw	v0,20(s0)
    3c54:	08000f18 	j	3c60 <__swsetup_r+0x1f4>
    3c58:	00000000 	nop
    3c5c:	00001021 	move	v0,zero
    3c60:	ae020008 	sw	v0,8(s0)
    3c64:	8e020010 	lw	v0,16(s0)
    3c68:	00000000 	nop
    3c6c:	14400010 	bnez	v0,3cb0 <__swsetup_r+0x244>
    3c70:	00000000 	nop
    3c74:	8602000c 	lh	v0,12(s0)
    3c78:	00000000 	nop
    3c7c:	3042ffff 	andi	v0,v0,0xffff
    3c80:	30420080 	andi	v0,v0,0x80
    3c84:	1040000a 	beqz	v0,3cb0 <__swsetup_r+0x244>
    3c88:	00000000 	nop
    3c8c:	8602000c 	lh	v0,12(s0)
    3c90:	00000000 	nop
    3c94:	34420040 	ori	v0,v0,0x40
    3c98:	00021400 	sll	v0,v0,0x10
    3c9c:	00021403 	sra	v0,v0,0x10
    3ca0:	a602000c 	sh	v0,12(s0)
    3ca4:	2402ffff 	li	v0,-1
    3ca8:	08000f2d 	j	3cb4 <__swsetup_r+0x248>
    3cac:	00000000 	nop
    3cb0:	00001021 	move	v0,zero
    3cb4:	03c0e821 	move	sp,s8
    3cb8:	8fbf001c 	lw	ra,28(sp)
    3cbc:	8fbe0018 	lw	s8,24(sp)
    3cc0:	8fb00014 	lw	s0,20(sp)
    3cc4:	27bd0020 	addiu	sp,sp,32
    3cc8:	03e00008 	jr	ra
    3ccc:	00000000 	nop

00003cd0 <__sflush_r>:
    3cd0:	27bdffc8 	addiu	sp,sp,-56
    3cd4:	afbf0034 	sw	ra,52(sp)
    3cd8:	afbe0030 	sw	s8,48(sp)
    3cdc:	afb3002c 	sw	s3,44(sp)
    3ce0:	afb20028 	sw	s2,40(sp)
    3ce4:	afb10024 	sw	s1,36(sp)
    3ce8:	afb00020 	sw	s0,32(sp)
    3cec:	03a0f021 	move	s8,sp
    3cf0:	afc40038 	sw	a0,56(s8)
    3cf4:	00a08021 	move	s0,a1
    3cf8:	8602000c 	lh	v0,12(s0)
    3cfc:	00000000 	nop
    3d00:	00409021 	move	s2,v0
    3d04:	32420008 	andi	v0,s2,0x8
    3d08:	144000c9 	bnez	v0,4030 <__sflush_r+0x360>
    3d0c:	00000000 	nop
    3d10:	8602000c 	lh	v0,12(s0)
    3d14:	00000000 	nop
    3d18:	34420800 	ori	v0,v0,0x800
    3d1c:	00021400 	sll	v0,v0,0x10
    3d20:	00021403 	sra	v0,v0,0x10
    3d24:	a602000c 	sh	v0,12(s0)
    3d28:	8e020004 	lw	v0,4(s0)
    3d2c:	00000000 	nop
    3d30:	1c400005 	bgtz	v0,3d48 <__sflush_r+0x78>
    3d34:	00000000 	nop
    3d38:	8e02003c 	lw	v0,60(s0)
    3d3c:	00000000 	nop
    3d40:	184000b8 	blez	v0,4024 <__sflush_r+0x354>
    3d44:	00000000 	nop
    3d48:	8e020028 	lw	v0,40(s0)
    3d4c:	00000000 	nop
    3d50:	104000b4 	beqz	v0,4024 <__sflush_r+0x354>
    3d54:	00000000 	nop
    3d58:	8fc20038 	lw	v0,56(s8)
    3d5c:	00000000 	nop
    3d60:	8c420000 	lw	v0,0(v0)
    3d64:	00000000 	nop
    3d68:	afc20018 	sw	v0,24(s8)
    3d6c:	8fc20038 	lw	v0,56(s8)
    3d70:	00000000 	nop
    3d74:	ac400000 	sw	zero,0(v0)
    3d78:	8602000c 	lh	v0,12(s0)
    3d7c:	00000000 	nop
    3d80:	3042ffff 	andi	v0,v0,0xffff
    3d84:	30421000 	andi	v0,v0,0x1000
    3d88:	10400006 	beqz	v0,3da4 <__sflush_r+0xd4>
    3d8c:	00000000 	nop
    3d90:	8e020050 	lw	v0,80(s0)
    3d94:	00000000 	nop
    3d98:	afc20010 	sw	v0,16(s8)
    3d9c:	08000f9a 	j	3e68 <__sflush_r+0x198>
    3da0:	00000000 	nop
    3da4:	8e020028 	lw	v0,40(s0)
    3da8:	8e03001c 	lw	v1,28(s0)
    3dac:	8fc40038 	lw	a0,56(s8)
    3db0:	00602821 	move	a1,v1
    3db4:	00003021 	move	a2,zero
    3db8:	24070001 	li	a3,1
    3dbc:	0040f809 	jalr	v0
    3dc0:	00000000 	nop
    3dc4:	afc20010 	sw	v0,16(s8)
    3dc8:	8fc30010 	lw	v1,16(s8)
    3dcc:	2402ffff 	li	v0,-1
    3dd0:	14620025 	bne	v1,v0,3e68 <__sflush_r+0x198>
    3dd4:	00000000 	nop
    3dd8:	8fc20038 	lw	v0,56(s8)
    3ddc:	00000000 	nop
    3de0:	8c420000 	lw	v0,0(v0)
    3de4:	00000000 	nop
    3de8:	1040001f 	beqz	v0,3e68 <__sflush_r+0x198>
    3dec:	00000000 	nop
    3df0:	2402ffff 	li	v0,-1
    3df4:	afc20014 	sw	v0,20(s8)
    3df8:	8fc20038 	lw	v0,56(s8)
    3dfc:	00000000 	nop
    3e00:	8c430000 	lw	v1,0(v0)
    3e04:	2402001d 	li	v0,29
    3e08:	10620007 	beq	v1,v0,3e28 <__sflush_r+0x158>
    3e0c:	00000000 	nop
    3e10:	8fc20038 	lw	v0,56(s8)
    3e14:	00000000 	nop
    3e18:	8c430000 	lw	v1,0(v0)
    3e1c:	24020016 	li	v0,22
    3e20:	14620008 	bne	v1,v0,3e44 <__sflush_r+0x174>
    3e24:	00000000 	nop
    3e28:	afc00014 	sw	zero,20(s8)
    3e2c:	8fc20038 	lw	v0,56(s8)
    3e30:	8fc30018 	lw	v1,24(s8)
    3e34:	00000000 	nop
    3e38:	ac430000 	sw	v1,0(v0)
    3e3c:	08000f97 	j	3e5c <__sflush_r+0x18c>
    3e40:	00000000 	nop
    3e44:	8602000c 	lh	v0,12(s0)
    3e48:	00000000 	nop
    3e4c:	34420040 	ori	v0,v0,0x40
    3e50:	00021400 	sll	v0,v0,0x10
    3e54:	00021403 	sra	v0,v0,0x10
    3e58:	a602000c 	sh	v0,12(s0)
    3e5c:	8fc20014 	lw	v0,20(s8)
    3e60:	0800103d 	j	40f4 <__sflush_r+0x424>
    3e64:	00000000 	nop
    3e68:	8602000c 	lh	v0,12(s0)
    3e6c:	00000000 	nop
    3e70:	3042ffff 	andi	v0,v0,0xffff
    3e74:	30420004 	andi	v0,v0,0x4
    3e78:	1040000f 	beqz	v0,3eb8 <__sflush_r+0x1e8>
    3e7c:	00000000 	nop
    3e80:	8e020004 	lw	v0,4(s0)
    3e84:	8fc30010 	lw	v1,16(s8)
    3e88:	00000000 	nop
    3e8c:	00621023 	subu	v0,v1,v0
    3e90:	afc20010 	sw	v0,16(s8)
    3e94:	8e020030 	lw	v0,48(s0)
    3e98:	00000000 	nop
    3e9c:	10400006 	beqz	v0,3eb8 <__sflush_r+0x1e8>
    3ea0:	00000000 	nop
    3ea4:	8e02003c 	lw	v0,60(s0)
    3ea8:	8fc30010 	lw	v1,16(s8)
    3eac:	00000000 	nop
    3eb0:	00621023 	subu	v0,v1,v0
    3eb4:	afc20010 	sw	v0,16(s8)
    3eb8:	8e020028 	lw	v0,40(s0)
    3ebc:	8e03001c 	lw	v1,28(s0)
    3ec0:	8fc40038 	lw	a0,56(s8)
    3ec4:	00602821 	move	a1,v1
    3ec8:	8fc60010 	lw	a2,16(s8)
    3ecc:	00003821 	move	a3,zero
    3ed0:	0040f809 	jalr	v0
    3ed4:	00000000 	nop
    3ed8:	afc20010 	sw	v0,16(s8)
    3edc:	8fc30010 	lw	v1,16(s8)
    3ee0:	2402ffff 	li	v0,-1
    3ee4:	14620013 	bne	v1,v0,3f34 <__sflush_r+0x264>
    3ee8:	00000000 	nop
    3eec:	8fc20038 	lw	v0,56(s8)
    3ef0:	00000000 	nop
    3ef4:	8c420000 	lw	v0,0(v0)
    3ef8:	00000000 	nop
    3efc:	1040000d 	beqz	v0,3f34 <__sflush_r+0x264>
    3f00:	00000000 	nop
    3f04:	8fc20038 	lw	v0,56(s8)
    3f08:	00000000 	nop
    3f0c:	8c430000 	lw	v1,0(v0)
    3f10:	2402001d 	li	v0,29
    3f14:	10620007 	beq	v1,v0,3f34 <__sflush_r+0x264>
    3f18:	00000000 	nop
    3f1c:	8fc20038 	lw	v0,56(s8)
    3f20:	00000000 	nop
    3f24:	8c430000 	lw	v1,0(v0)
    3f28:	24020016 	li	v0,22
    3f2c:	14620034 	bne	v1,v0,4000 <__sflush_r+0x330>
    3f30:	00000000 	nop
    3f34:	8603000c 	lh	v1,12(s0)
    3f38:	2402f7ff 	li	v0,-2049
    3f3c:	00621024 	and	v0,v1,v0
    3f40:	00021400 	sll	v0,v0,0x10
    3f44:	00021403 	sra	v0,v0,0x10
    3f48:	a602000c 	sh	v0,12(s0)
    3f4c:	ae000004 	sw	zero,4(s0)
    3f50:	8e020010 	lw	v0,16(s0)
    3f54:	00000000 	nop
    3f58:	ae020000 	sw	v0,0(s0)
    3f5c:	8602000c 	lh	v0,12(s0)
    3f60:	00000000 	nop
    3f64:	3042ffff 	andi	v0,v0,0xffff
    3f68:	30421000 	andi	v0,v0,0x1000
    3f6c:	1040000e 	beqz	v0,3fa8 <__sflush_r+0x2d8>
    3f70:	00000000 	nop
    3f74:	8fc30010 	lw	v1,16(s8)
    3f78:	2402ffff 	li	v0,-1
    3f7c:	14620007 	bne	v1,v0,3f9c <__sflush_r+0x2cc>
    3f80:	00000000 	nop
    3f84:	8fc20038 	lw	v0,56(s8)
    3f88:	00000000 	nop
    3f8c:	8c420000 	lw	v0,0(v0)
    3f90:	00000000 	nop
    3f94:	14400004 	bnez	v0,3fa8 <__sflush_r+0x2d8>
    3f98:	00000000 	nop
    3f9c:	8fc20010 	lw	v0,16(s8)
    3fa0:	00000000 	nop
    3fa4:	ae020050 	sw	v0,80(s0)
    3fa8:	8fc20038 	lw	v0,56(s8)
    3fac:	8fc30018 	lw	v1,24(s8)
    3fb0:	00000000 	nop
    3fb4:	ac430000 	sw	v1,0(v0)
    3fb8:	8e020030 	lw	v0,48(s0)
    3fbc:	00000000 	nop
    3fc0:	1040000d 	beqz	v0,3ff8 <__sflush_r+0x328>
    3fc4:	00000000 	nop
    3fc8:	8e030030 	lw	v1,48(s0)
    3fcc:	26020040 	addiu	v0,s0,64
    3fd0:	10620006 	beq	v1,v0,3fec <__sflush_r+0x31c>
    3fd4:	00000000 	nop
    3fd8:	8e020030 	lw	v0,48(s0)
    3fdc:	8fc40038 	lw	a0,56(s8)
    3fe0:	00402821 	move	a1,v0
    3fe4:	0c00126d 	jal	49b4 <_free_r>
    3fe8:	00000000 	nop
    3fec:	ae000030 	sw	zero,48(s0)
    3ff0:	08001009 	j	4024 <__sflush_r+0x354>
    3ff4:	00000000 	nop
    3ff8:	08001009 	j	4024 <__sflush_r+0x354>
    3ffc:	00000000 	nop
    4000:	8602000c 	lh	v0,12(s0)
    4004:	00000000 	nop
    4008:	34420040 	ori	v0,v0,0x40
    400c:	00021400 	sll	v0,v0,0x10
    4010:	00021403 	sra	v0,v0,0x10
    4014:	a602000c 	sh	v0,12(s0)
    4018:	2402ffff 	li	v0,-1
    401c:	0800103d 	j	40f4 <__sflush_r+0x424>
    4020:	00000000 	nop
    4024:	00001021 	move	v0,zero
    4028:	0800103d 	j	40f4 <__sflush_r+0x424>
    402c:	00000000 	nop
    4030:	8e110010 	lw	s1,16(s0)
    4034:	00000000 	nop
    4038:	16200004 	bnez	s1,404c <__sflush_r+0x37c>
    403c:	00000000 	nop
    4040:	00001021 	move	v0,zero
    4044:	0800103d 	j	40f4 <__sflush_r+0x424>
    4048:	00000000 	nop
    404c:	8e020000 	lw	v0,0(s0)
    4050:	00000000 	nop
    4054:	00401821 	move	v1,v0
    4058:	02201021 	move	v0,s1
    405c:	00629823 	subu	s3,v1,v0
    4060:	ae110000 	sw	s1,0(s0)
    4064:	32420003 	andi	v0,s2,0x3
    4068:	14400004 	bnez	v0,407c <__sflush_r+0x3ac>
    406c:	00000000 	nop
    4070:	8e020014 	lw	v0,20(s0)
    4074:	08001020 	j	4080 <__sflush_r+0x3b0>
    4078:	00000000 	nop
    407c:	00001021 	move	v0,zero
    4080:	ae020008 	sw	v0,8(s0)
    4084:	0800103a 	j	40e8 <__sflush_r+0x418>
    4088:	00000000 	nop
    408c:	8e020024 	lw	v0,36(s0)
    4090:	8e03001c 	lw	v1,28(s0)
    4094:	8fc40038 	lw	a0,56(s8)
    4098:	00602821 	move	a1,v1
    409c:	02203021 	move	a2,s1
    40a0:	02603821 	move	a3,s3
    40a4:	0040f809 	jalr	v0
    40a8:	00000000 	nop
    40ac:	00409021 	move	s2,v0
    40b0:	1e40000a 	bgtz	s2,40dc <__sflush_r+0x40c>
    40b4:	00000000 	nop
    40b8:	8602000c 	lh	v0,12(s0)
    40bc:	00000000 	nop
    40c0:	34420040 	ori	v0,v0,0x40
    40c4:	00021400 	sll	v0,v0,0x10
    40c8:	00021403 	sra	v0,v0,0x10
    40cc:	a602000c 	sh	v0,12(s0)
    40d0:	2402ffff 	li	v0,-1
    40d4:	0800103d 	j	40f4 <__sflush_r+0x424>
    40d8:	00000000 	nop
    40dc:	02401021 	move	v0,s2
    40e0:	02228821 	addu	s1,s1,v0
    40e4:	02729823 	subu	s3,s3,s2
    40e8:	1e60ffe8 	bgtz	s3,408c <__sflush_r+0x3bc>
    40ec:	00000000 	nop
    40f0:	00001021 	move	v0,zero
    40f4:	03c0e821 	move	sp,s8
    40f8:	8fbf0034 	lw	ra,52(sp)
    40fc:	8fbe0030 	lw	s8,48(sp)
    4100:	8fb3002c 	lw	s3,44(sp)
    4104:	8fb20028 	lw	s2,40(sp)
    4108:	8fb10024 	lw	s1,36(sp)
    410c:	8fb00020 	lw	s0,32(sp)
    4110:	27bd0038 	addiu	sp,sp,56
    4114:	03e00008 	jr	ra
    4118:	00000000 	nop

0000411c <_fflush_r>:
    411c:	27bdffd8 	addiu	sp,sp,-40
    4120:	afbf0024 	sw	ra,36(sp)
    4124:	afbe0020 	sw	s8,32(sp)
    4128:	afb0001c 	sw	s0,28(sp)
    412c:	03a0f021 	move	s8,sp
    4130:	afc40028 	sw	a0,40(s8)
    4134:	00a08021 	move	s0,a1
    4138:	8fc20028 	lw	v0,40(s8)
    413c:	00000000 	nop
    4140:	1040000a 	beqz	v0,416c <_fflush_r+0x50>
    4144:	00000000 	nop
    4148:	8fc20028 	lw	v0,40(s8)
    414c:	00000000 	nop
    4150:	8c420038 	lw	v0,56(v0)
    4154:	00000000 	nop
    4158:	14400004 	bnez	v0,416c <_fflush_r+0x50>
    415c:	00000000 	nop
    4160:	8fc40028 	lw	a0,40(s8)
    4164:	0c0011c9 	jal	4724 <__sinit>
    4168:	00000000 	nop
    416c:	8602000c 	lh	v0,12(s0)
    4170:	00000000 	nop
    4174:	14400004 	bnez	v0,4188 <_fflush_r+0x6c>
    4178:	00000000 	nop
    417c:	00001021 	move	v0,zero
    4180:	08001068 	j	41a0 <_fflush_r+0x84>
    4184:	00000000 	nop
    4188:	8fc40028 	lw	a0,40(s8)
    418c:	02002821 	move	a1,s0
    4190:	0c000f34 	jal	3cd0 <__sflush_r>
    4194:	00000000 	nop
    4198:	afc20010 	sw	v0,16(s8)
    419c:	8fc20010 	lw	v0,16(s8)
    41a0:	03c0e821 	move	sp,s8
    41a4:	8fbf0024 	lw	ra,36(sp)
    41a8:	8fbe0020 	lw	s8,32(sp)
    41ac:	8fb0001c 	lw	s0,28(sp)
    41b0:	27bd0028 	addiu	sp,sp,40
    41b4:	03e00008 	jr	ra
    41b8:	00000000 	nop

000041bc <fflush>:
    41bc:	27bdffe8 	addiu	sp,sp,-24
    41c0:	afbf0014 	sw	ra,20(sp)
    41c4:	afbe0010 	sw	s8,16(sp)
    41c8:	03a0f021 	move	s8,sp
    41cc:	00801021 	move	v0,a0
    41d0:	1440000a 	bnez	v0,41fc <fflush+0x40>
    41d4:	00000000 	nop
    41d8:	8f828014 	lw	v0,-32748(gp)
    41dc:	00000000 	nop
    41e0:	00402021 	move	a0,v0
    41e4:	3c020000 	lui	v0,0x0
    41e8:	2445411c 	addiu	a1,v0,16668
    41ec:	0c00151b 	jal	546c <_fwalk_reent>
    41f0:	00000000 	nop
    41f4:	08001085 	j	4214 <fflush+0x58>
    41f8:	00000000 	nop
    41fc:	8f838010 	lw	v1,-32752(gp)
    4200:	00000000 	nop
    4204:	00602021 	move	a0,v1
    4208:	00402821 	move	a1,v0
    420c:	0c001047 	jal	411c <_fflush_r>
    4210:	00000000 	nop
    4214:	03c0e821 	move	sp,s8
    4218:	8fbf0014 	lw	ra,20(sp)
    421c:	8fbe0010 	lw	s8,16(sp)
    4220:	27bd0018 	addiu	sp,sp,24
    4224:	03e00008 	jr	ra
    4228:	00000000 	nop

0000422c <std>:
    422c:	27bdffe8 	addiu	sp,sp,-24
    4230:	afbf0014 	sw	ra,20(sp)
    4234:	afbe0010 	sw	s8,16(sp)
    4238:	03a0f021 	move	s8,sp
    423c:	afc40018 	sw	a0,24(s8)
    4240:	afc5001c 	sw	a1,28(s8)
    4244:	afc60020 	sw	a2,32(s8)
    4248:	afc70024 	sw	a3,36(s8)
    424c:	8fc20018 	lw	v0,24(s8)
    4250:	00000000 	nop
    4254:	ac400000 	sw	zero,0(v0)
    4258:	8fc20018 	lw	v0,24(s8)
    425c:	00000000 	nop
    4260:	ac400004 	sw	zero,4(v0)
    4264:	8fc20018 	lw	v0,24(s8)
    4268:	00000000 	nop
    426c:	ac400008 	sw	zero,8(v0)
    4270:	8fc2001c 	lw	v0,28(s8)
    4274:	00000000 	nop
    4278:	00021c00 	sll	v1,v0,0x10
    427c:	00031c03 	sra	v1,v1,0x10
    4280:	8fc20018 	lw	v0,24(s8)
    4284:	00000000 	nop
    4288:	a443000c 	sh	v1,12(v0)
    428c:	8fc20018 	lw	v0,24(s8)
    4290:	00000000 	nop
    4294:	ac400064 	sw	zero,100(v0)
    4298:	8fc20020 	lw	v0,32(s8)
    429c:	00000000 	nop
    42a0:	00021c00 	sll	v1,v0,0x10
    42a4:	00031c03 	sra	v1,v1,0x10
    42a8:	8fc20018 	lw	v0,24(s8)
    42ac:	00000000 	nop
    42b0:	a443000e 	sh	v1,14(v0)
    42b4:	8fc20018 	lw	v0,24(s8)
    42b8:	00000000 	nop
    42bc:	ac400010 	sw	zero,16(v0)
    42c0:	8fc20018 	lw	v0,24(s8)
    42c4:	00000000 	nop
    42c8:	ac400014 	sw	zero,20(v0)
    42cc:	8fc20018 	lw	v0,24(s8)
    42d0:	00000000 	nop
    42d4:	ac400018 	sw	zero,24(v0)
    42d8:	8fc20018 	lw	v0,24(s8)
    42dc:	00000000 	nop
    42e0:	2442005c 	addiu	v0,v0,92
    42e4:	00402021 	move	a0,v0
    42e8:	00002821 	move	a1,zero
    42ec:	24060008 	li	a2,8
    42f0:	0c0015fa 	jal	57e8 <memset>
    42f4:	00000000 	nop
    42f8:	8fc20018 	lw	v0,24(s8)
    42fc:	8fc30018 	lw	v1,24(s8)
    4300:	00000000 	nop
    4304:	ac43001c 	sw	v1,28(v0)
    4308:	8fc20018 	lw	v0,24(s8)
    430c:	3c030000 	lui	v1,0x0
    4310:	24635e14 	addiu	v1,v1,24084
    4314:	ac430020 	sw	v1,32(v0)
    4318:	8fc20018 	lw	v0,24(s8)
    431c:	3c030000 	lui	v1,0x0
    4320:	24635f00 	addiu	v1,v1,24320
    4324:	ac430024 	sw	v1,36(v0)
    4328:	8fc20018 	lw	v0,24(s8)
    432c:	3c030000 	lui	v1,0x0
    4330:	24635fc4 	addiu	v1,v1,24516
    4334:	ac430028 	sw	v1,40(v0)
    4338:	8fc20018 	lw	v0,24(s8)
    433c:	3c030000 	lui	v1,0x0
    4340:	24636080 	addiu	v1,v1,24704
    4344:	ac43002c 	sw	v1,44(v0)
    4348:	03c0e821 	move	sp,s8
    434c:	8fbf0014 	lw	ra,20(sp)
    4350:	8fbe0010 	lw	s8,16(sp)
    4354:	27bd0018 	addiu	sp,sp,24
    4358:	03e00008 	jr	ra
    435c:	00000000 	nop

00004360 <__sfmoreglue>:
    4360:	27bdffd8 	addiu	sp,sp,-40
    4364:	afbf0024 	sw	ra,36(sp)
    4368:	afbe0020 	sw	s8,32(sp)
    436c:	afb0001c 	sw	s0,28(sp)
    4370:	03a0f021 	move	s8,sp
    4374:	afc40028 	sw	a0,40(s8)
    4378:	00a08021 	move	s0,a1
    437c:	02002021 	move	a0,s0
    4380:	00801821 	move	v1,a0
    4384:	00031080 	sll	v0,v1,0x2
    4388:	00401821 	move	v1,v0
    438c:	00031080 	sll	v0,v1,0x2
    4390:	00431023 	subu	v0,v0,v1
    4394:	00441021 	addu	v0,v0,a0
    4398:	000210c0 	sll	v0,v0,0x3
    439c:	2442000c 	addiu	v0,v0,12
    43a0:	8fc40028 	lw	a0,40(s8)
    43a4:	00402821 	move	a1,v0
    43a8:	0c0003e4 	jal	f90 <_malloc_r>
    43ac:	00000000 	nop
    43b0:	afc20010 	sw	v0,16(s8)
    43b4:	8fc20010 	lw	v0,16(s8)
    43b8:	00000000 	nop
    43bc:	14400004 	bnez	v0,43d0 <__sfmoreglue+0x70>
    43c0:	00000000 	nop
    43c4:	00001021 	move	v0,zero
    43c8:	08001110 	j	4440 <__sfmoreglue+0xe0>
    43cc:	00000000 	nop
    43d0:	8fc20010 	lw	v0,16(s8)
    43d4:	00000000 	nop
    43d8:	2442000c 	addiu	v0,v0,12
    43dc:	afc20014 	sw	v0,20(s8)
    43e0:	8fc20010 	lw	v0,16(s8)
    43e4:	00000000 	nop
    43e8:	ac400000 	sw	zero,0(v0)
    43ec:	8fc20010 	lw	v0,16(s8)
    43f0:	00000000 	nop
    43f4:	ac500004 	sw	s0,4(v0)
    43f8:	8fc20010 	lw	v0,16(s8)
    43fc:	8fc30014 	lw	v1,20(s8)
    4400:	00000000 	nop
    4404:	ac430008 	sw	v1,8(v0)
    4408:	02002021 	move	a0,s0
    440c:	00801821 	move	v1,a0
    4410:	00031080 	sll	v0,v1,0x2
    4414:	00401821 	move	v1,v0
    4418:	00031080 	sll	v0,v1,0x2
    441c:	00431023 	subu	v0,v0,v1
    4420:	00441021 	addu	v0,v0,a0
    4424:	000210c0 	sll	v0,v0,0x3
    4428:	8fc40014 	lw	a0,20(s8)
    442c:	00002821 	move	a1,zero
    4430:	00403021 	move	a2,v0
    4434:	0c0015fa 	jal	57e8 <memset>
    4438:	00000000 	nop
    443c:	8fc20010 	lw	v0,16(s8)
    4440:	03c0e821 	move	sp,s8
    4444:	8fbf0024 	lw	ra,36(sp)
    4448:	8fbe0020 	lw	s8,32(sp)
    444c:	8fb0001c 	lw	s0,28(sp)
    4450:	27bd0028 	addiu	sp,sp,40
    4454:	03e00008 	jr	ra
    4458:	00000000 	nop

0000445c <__sfp>:
    445c:	27bdffd8 	addiu	sp,sp,-40
    4460:	afbf0024 	sw	ra,36(sp)
    4464:	afbe0020 	sw	s8,32(sp)
    4468:	03a0f021 	move	s8,sp
    446c:	afc40028 	sw	a0,40(s8)
    4470:	0c001213 	jal	484c <__sfp_lock_acquire>
    4474:	00000000 	nop
    4478:	8f828014 	lw	v0,-32748(gp)
    447c:	00000000 	nop
    4480:	8c420038 	lw	v0,56(v0)
    4484:	00000000 	nop
    4488:	14400006 	bnez	v0,44a4 <__sfp+0x48>
    448c:	00000000 	nop
    4490:	8f828014 	lw	v0,-32748(gp)
    4494:	00000000 	nop
    4498:	00402021 	move	a0,v0
    449c:	0c0011c9 	jal	4724 <__sinit>
    44a0:	00000000 	nop
    44a4:	8f828014 	lw	v0,-32748(gp)
    44a8:	00000000 	nop
    44ac:	244202e0 	addiu	v0,v0,736
    44b0:	afc20018 	sw	v0,24(s8)
    44b4:	8fc20018 	lw	v0,24(s8)
    44b8:	00000000 	nop
    44bc:	8c420008 	lw	v0,8(v0)
    44c0:	00000000 	nop
    44c4:	afc20010 	sw	v0,16(s8)
    44c8:	8fc20018 	lw	v0,24(s8)
    44cc:	00000000 	nop
    44d0:	8c420004 	lw	v0,4(v0)
    44d4:	00000000 	nop
    44d8:	afc20014 	sw	v0,20(s8)
    44dc:	08001178 	j	45e0 <__sfp+0x184>
    44e0:	00000000 	nop
    44e4:	8fc20010 	lw	v0,16(s8)
    44e8:	00000000 	nop
    44ec:	8442000c 	lh	v0,12(v0)
    44f0:	00000000 	nop
    44f4:	14400036 	bnez	v0,45d0 <__sfp+0x174>
    44f8:	00000000 	nop
    44fc:	00000000 	nop
    4500:	8fc20010 	lw	v0,16(s8)
    4504:	2403ffff 	li	v1,-1
    4508:	a443000e 	sh	v1,14(v0)
    450c:	8fc20010 	lw	v0,16(s8)
    4510:	24030001 	li	v1,1
    4514:	a443000c 	sh	v1,12(v0)
    4518:	8fc20010 	lw	v0,16(s8)
    451c:	00000000 	nop
    4520:	ac400064 	sw	zero,100(v0)
    4524:	0c00121b 	jal	486c <__sfp_lock_release>
    4528:	00000000 	nop
    452c:	8fc20010 	lw	v0,16(s8)
    4530:	00000000 	nop
    4534:	ac400000 	sw	zero,0(v0)
    4538:	8fc20010 	lw	v0,16(s8)
    453c:	00000000 	nop
    4540:	ac400008 	sw	zero,8(v0)
    4544:	8fc20010 	lw	v0,16(s8)
    4548:	00000000 	nop
    454c:	ac400004 	sw	zero,4(v0)
    4550:	8fc20010 	lw	v0,16(s8)
    4554:	00000000 	nop
    4558:	ac400010 	sw	zero,16(v0)
    455c:	8fc20010 	lw	v0,16(s8)
    4560:	00000000 	nop
    4564:	ac400014 	sw	zero,20(v0)
    4568:	8fc20010 	lw	v0,16(s8)
    456c:	00000000 	nop
    4570:	ac400018 	sw	zero,24(v0)
    4574:	8fc20010 	lw	v0,16(s8)
    4578:	00000000 	nop
    457c:	2442005c 	addiu	v0,v0,92
    4580:	00402021 	move	a0,v0
    4584:	00002821 	move	a1,zero
    4588:	24060008 	li	a2,8
    458c:	0c0015fa 	jal	57e8 <memset>
    4590:	00000000 	nop
    4594:	8fc20010 	lw	v0,16(s8)
    4598:	00000000 	nop
    459c:	ac400030 	sw	zero,48(v0)
    45a0:	8fc20010 	lw	v0,16(s8)
    45a4:	00000000 	nop
    45a8:	ac400034 	sw	zero,52(v0)
    45ac:	8fc20010 	lw	v0,16(s8)
    45b0:	00000000 	nop
    45b4:	ac400044 	sw	zero,68(v0)
    45b8:	8fc20010 	lw	v0,16(s8)
    45bc:	00000000 	nop
    45c0:	ac400048 	sw	zero,72(v0)
    45c4:	8fc20010 	lw	v0,16(s8)
    45c8:	080011a4 	j	4690 <__sfp+0x234>
    45cc:	00000000 	nop
    45d0:	8fc20010 	lw	v0,16(s8)
    45d4:	00000000 	nop
    45d8:	24420068 	addiu	v0,v0,104
    45dc:	afc20010 	sw	v0,16(s8)
    45e0:	8fc20014 	lw	v0,20(s8)
    45e4:	00000000 	nop
    45e8:	2442ffff 	addiu	v0,v0,-1
    45ec:	afc20014 	sw	v0,20(s8)
    45f0:	8fc20014 	lw	v0,20(s8)
    45f4:	00000000 	nop
    45f8:	0441ffba 	bgez	v0,44e4 <__sfp+0x88>
    45fc:	00000000 	nop
    4600:	8fc20018 	lw	v0,24(s8)
    4604:	00000000 	nop
    4608:	8c420000 	lw	v0,0(v0)
    460c:	00000000 	nop
    4610:	14400018 	bnez	v0,4674 <__sfp+0x218>
    4614:	00000000 	nop
    4618:	8fc40028 	lw	a0,40(s8)
    461c:	24050004 	li	a1,4
    4620:	0c0010d8 	jal	4360 <__sfmoreglue>
    4624:	00000000 	nop
    4628:	00401821 	move	v1,v0
    462c:	8fc20018 	lw	v0,24(s8)
    4630:	00000000 	nop
    4634:	ac430000 	sw	v1,0(v0)
    4638:	8fc20018 	lw	v0,24(s8)
    463c:	00000000 	nop
    4640:	8c420000 	lw	v0,0(v0)
    4644:	00000000 	nop
    4648:	1440000a 	bnez	v0,4674 <__sfp+0x218>
    464c:	00000000 	nop
    4650:	00000000 	nop
    4654:	0c00121b 	jal	486c <__sfp_lock_release>
    4658:	00000000 	nop
    465c:	8fc20028 	lw	v0,40(s8)
    4660:	2403000c 	li	v1,12
    4664:	ac430000 	sw	v1,0(v0)
    4668:	00001021 	move	v0,zero
    466c:	080011a4 	j	4690 <__sfp+0x234>
    4670:	00000000 	nop
    4674:	8fc20018 	lw	v0,24(s8)
    4678:	00000000 	nop
    467c:	8c420000 	lw	v0,0(v0)
    4680:	00000000 	nop
    4684:	afc20018 	sw	v0,24(s8)
    4688:	0800112d 	j	44b4 <__sfp+0x58>
    468c:	00000000 	nop
    4690:	03c0e821 	move	sp,s8
    4694:	8fbf0024 	lw	ra,36(sp)
    4698:	8fbe0020 	lw	s8,32(sp)
    469c:	27bd0028 	addiu	sp,sp,40
    46a0:	03e00008 	jr	ra
    46a4:	00000000 	nop

000046a8 <_cleanup_r>:
    46a8:	27bdffe8 	addiu	sp,sp,-24
    46ac:	afbf0014 	sw	ra,20(sp)
    46b0:	afbe0010 	sw	s8,16(sp)
    46b4:	03a0f021 	move	s8,sp
    46b8:	afc40018 	sw	a0,24(s8)
    46bc:	8fc40018 	lw	a0,24(s8)
    46c0:	3c020000 	lui	v0,0x0
    46c4:	24456364 	addiu	a1,v0,25444
    46c8:	0c0014de 	jal	5378 <_fwalk>
    46cc:	00000000 	nop
    46d0:	03c0e821 	move	sp,s8
    46d4:	8fbf0014 	lw	ra,20(sp)
    46d8:	8fbe0010 	lw	s8,16(sp)
    46dc:	27bd0018 	addiu	sp,sp,24
    46e0:	03e00008 	jr	ra
    46e4:	00000000 	nop

000046e8 <_cleanup>:
    46e8:	27bdffe8 	addiu	sp,sp,-24
    46ec:	afbf0014 	sw	ra,20(sp)
    46f0:	afbe0010 	sw	s8,16(sp)
    46f4:	03a0f021 	move	s8,sp
    46f8:	8f828014 	lw	v0,-32748(gp)
    46fc:	00000000 	nop
    4700:	00402021 	move	a0,v0
    4704:	0c0011aa 	jal	46a8 <_cleanup_r>
    4708:	00000000 	nop
    470c:	03c0e821 	move	sp,s8
    4710:	8fbf0014 	lw	ra,20(sp)
    4714:	8fbe0010 	lw	s8,16(sp)
    4718:	27bd0018 	addiu	sp,sp,24
    471c:	03e00008 	jr	ra
    4720:	00000000 	nop

00004724 <__sinit>:
    4724:	27bdffe8 	addiu	sp,sp,-24
    4728:	afbf0014 	sw	ra,20(sp)
    472c:	afbe0010 	sw	s8,16(sp)
    4730:	03a0f021 	move	s8,sp
    4734:	afc40018 	sw	a0,24(s8)
    4738:	0c001223 	jal	488c <__sinit_lock_acquire>
    473c:	00000000 	nop
    4740:	8fc20018 	lw	v0,24(s8)
    4744:	00000000 	nop
    4748:	8c420038 	lw	v0,56(v0)
    474c:	00000000 	nop
    4750:	10400005 	beqz	v0,4768 <__sinit+0x44>
    4754:	00000000 	nop
    4758:	0c00122b 	jal	48ac <__sinit_lock_release>
    475c:	00000000 	nop
    4760:	0800120d 	j	4834 <__sinit+0x110>
    4764:	00000000 	nop
    4768:	8fc20018 	lw	v0,24(s8)
    476c:	3c030000 	lui	v1,0x0
    4770:	246346a8 	addiu	v1,v1,18088
    4774:	ac43003c 	sw	v1,60(v0)
    4778:	8fc20018 	lw	v0,24(s8)
    477c:	24030001 	li	v1,1
    4780:	ac430038 	sw	v1,56(v0)
    4784:	8fc20018 	lw	v0,24(s8)
    4788:	00000000 	nop
    478c:	ac4002e0 	sw	zero,736(v0)
    4790:	8fc20018 	lw	v0,24(s8)
    4794:	24030003 	li	v1,3
    4798:	ac4302e4 	sw	v1,740(v0)
    479c:	8fc20018 	lw	v0,24(s8)
    47a0:	00000000 	nop
    47a4:	244302ec 	addiu	v1,v0,748
    47a8:	8fc20018 	lw	v0,24(s8)
    47ac:	00000000 	nop
    47b0:	ac4302e8 	sw	v1,744(v0)
    47b4:	8fc20018 	lw	v0,24(s8)
    47b8:	00000000 	nop
    47bc:	8c420004 	lw	v0,4(v0)
    47c0:	00000000 	nop
    47c4:	00402021 	move	a0,v0
    47c8:	24050004 	li	a1,4
    47cc:	00003021 	move	a2,zero
    47d0:	8fc70018 	lw	a3,24(s8)
    47d4:	0c00108b 	jal	422c <std>
    47d8:	00000000 	nop
    47dc:	8fc20018 	lw	v0,24(s8)
    47e0:	00000000 	nop
    47e4:	8c420008 	lw	v0,8(v0)
    47e8:	00000000 	nop
    47ec:	00402021 	move	a0,v0
    47f0:	24050009 	li	a1,9
    47f4:	24060001 	li	a2,1
    47f8:	8fc70018 	lw	a3,24(s8)
    47fc:	0c00108b 	jal	422c <std>
    4800:	00000000 	nop
    4804:	8fc20018 	lw	v0,24(s8)
    4808:	00000000 	nop
    480c:	8c42000c 	lw	v0,12(v0)
    4810:	00000000 	nop
    4814:	00402021 	move	a0,v0
    4818:	24050012 	li	a1,18
    481c:	24060002 	li	a2,2
    4820:	8fc70018 	lw	a3,24(s8)
    4824:	0c00108b 	jal	422c <std>
    4828:	00000000 	nop
    482c:	0c00122b 	jal	48ac <__sinit_lock_release>
    4830:	00000000 	nop
    4834:	03c0e821 	move	sp,s8
    4838:	8fbf0014 	lw	ra,20(sp)
    483c:	8fbe0010 	lw	s8,16(sp)
    4840:	27bd0018 	addiu	sp,sp,24
    4844:	03e00008 	jr	ra
    4848:	00000000 	nop

0000484c <__sfp_lock_acquire>:
    484c:	27bdfff8 	addiu	sp,sp,-8
    4850:	afbe0004 	sw	s8,4(sp)
    4854:	03a0f021 	move	s8,sp
    4858:	03c0e821 	move	sp,s8
    485c:	8fbe0004 	lw	s8,4(sp)
    4860:	27bd0008 	addiu	sp,sp,8
    4864:	03e00008 	jr	ra
    4868:	00000000 	nop

0000486c <__sfp_lock_release>:
    486c:	27bdfff8 	addiu	sp,sp,-8
    4870:	afbe0004 	sw	s8,4(sp)
    4874:	03a0f021 	move	s8,sp
    4878:	03c0e821 	move	sp,s8
    487c:	8fbe0004 	lw	s8,4(sp)
    4880:	27bd0008 	addiu	sp,sp,8
    4884:	03e00008 	jr	ra
    4888:	00000000 	nop

0000488c <__sinit_lock_acquire>:
    488c:	27bdfff8 	addiu	sp,sp,-8
    4890:	afbe0004 	sw	s8,4(sp)
    4894:	03a0f021 	move	s8,sp
    4898:	03c0e821 	move	sp,s8
    489c:	8fbe0004 	lw	s8,4(sp)
    48a0:	27bd0008 	addiu	sp,sp,8
    48a4:	03e00008 	jr	ra
    48a8:	00000000 	nop

000048ac <__sinit_lock_release>:
    48ac:	27bdfff8 	addiu	sp,sp,-8
    48b0:	afbe0004 	sw	s8,4(sp)
    48b4:	03a0f021 	move	s8,sp
    48b8:	03c0e821 	move	sp,s8
    48bc:	8fbe0004 	lw	s8,4(sp)
    48c0:	27bd0008 	addiu	sp,sp,8
    48c4:	03e00008 	jr	ra
    48c8:	00000000 	nop

000048cc <__fp_lock>:
    48cc:	27bdfff8 	addiu	sp,sp,-8
    48d0:	afbe0004 	sw	s8,4(sp)
    48d4:	03a0f021 	move	s8,sp
    48d8:	afc40008 	sw	a0,8(s8)
    48dc:	00001021 	move	v0,zero
    48e0:	03c0e821 	move	sp,s8
    48e4:	8fbe0004 	lw	s8,4(sp)
    48e8:	27bd0008 	addiu	sp,sp,8
    48ec:	03e00008 	jr	ra
    48f0:	00000000 	nop

000048f4 <__fp_unlock>:
    48f4:	27bdfff8 	addiu	sp,sp,-8
    48f8:	afbe0004 	sw	s8,4(sp)
    48fc:	03a0f021 	move	s8,sp
    4900:	afc40008 	sw	a0,8(s8)
    4904:	00001021 	move	v0,zero
    4908:	03c0e821 	move	sp,s8
    490c:	8fbe0004 	lw	s8,4(sp)
    4910:	27bd0008 	addiu	sp,sp,8
    4914:	03e00008 	jr	ra
    4918:	00000000 	nop

0000491c <__fp_lock_all>:
    491c:	27bdffe8 	addiu	sp,sp,-24
    4920:	afbf0014 	sw	ra,20(sp)
    4924:	afbe0010 	sw	s8,16(sp)
    4928:	03a0f021 	move	s8,sp
    492c:	0c001213 	jal	484c <__sfp_lock_acquire>
    4930:	00000000 	nop
    4934:	8f828010 	lw	v0,-32752(gp)
    4938:	00000000 	nop
    493c:	00402021 	move	a0,v0
    4940:	3c020000 	lui	v0,0x0
    4944:	244548cc 	addiu	a1,v0,18636
    4948:	0c0014de 	jal	5378 <_fwalk>
    494c:	00000000 	nop
    4950:	03c0e821 	move	sp,s8
    4954:	8fbf0014 	lw	ra,20(sp)
    4958:	8fbe0010 	lw	s8,16(sp)
    495c:	27bd0018 	addiu	sp,sp,24
    4960:	03e00008 	jr	ra
    4964:	00000000 	nop

00004968 <__fp_unlock_all>:
    4968:	27bdffe8 	addiu	sp,sp,-24
    496c:	afbf0014 	sw	ra,20(sp)
    4970:	afbe0010 	sw	s8,16(sp)
    4974:	03a0f021 	move	s8,sp
    4978:	8f828010 	lw	v0,-32752(gp)
    497c:	00000000 	nop
    4980:	00402021 	move	a0,v0
    4984:	3c020000 	lui	v0,0x0
    4988:	244548f4 	addiu	a1,v0,18676
    498c:	0c0014de 	jal	5378 <_fwalk>
    4990:	00000000 	nop
    4994:	0c00121b 	jal	486c <__sfp_lock_release>
    4998:	00000000 	nop
    499c:	03c0e821 	move	sp,s8
    49a0:	8fbf0014 	lw	ra,20(sp)
    49a4:	8fbe0010 	lw	s8,16(sp)
    49a8:	27bd0018 	addiu	sp,sp,24
    49ac:	03e00008 	jr	ra
    49b0:	00000000 	nop

000049b4 <_free_r>:
    49b4:	27bdffc0 	addiu	sp,sp,-64
    49b8:	afbf003c 	sw	ra,60(sp)
    49bc:	afbe0038 	sw	s8,56(sp)
    49c0:	03a0f021 	move	s8,sp
    49c4:	afc40040 	sw	a0,64(s8)
    49c8:	afc50044 	sw	a1,68(s8)
    49cc:	8fc20044 	lw	v0,68(s8)
    49d0:	00000000 	nop
    49d4:	14400003 	bnez	v0,49e4 <_free_r+0x30>
    49d8:	00000000 	nop
    49dc:	08001443 	j	510c <_free_r+0x758>
    49e0:	00000000 	nop
    49e4:	8fc40040 	lw	a0,64(s8)
    49e8:	0c000a26 	jal	2898 <__malloc_lock>
    49ec:	00000000 	nop
    49f0:	8fc20044 	lw	v0,68(s8)
    49f4:	00000000 	nop
    49f8:	2442fff8 	addiu	v0,v0,-8
    49fc:	afc20010 	sw	v0,16(s8)
    4a00:	8fc20010 	lw	v0,16(s8)
    4a04:	00000000 	nop
    4a08:	8c420004 	lw	v0,4(v0)
    4a0c:	00000000 	nop
    4a10:	afc20024 	sw	v0,36(s8)
    4a14:	8fc30024 	lw	v1,36(s8)
    4a18:	2402fffe 	li	v0,-2
    4a1c:	00621024 	and	v0,v1,v0
    4a20:	afc20014 	sw	v0,20(s8)
    4a24:	8fc30010 	lw	v1,16(s8)
    4a28:	8fc20014 	lw	v0,20(s8)
    4a2c:	00000000 	nop
    4a30:	00621021 	addu	v0,v1,v0
    4a34:	afc20028 	sw	v0,40(s8)
    4a38:	8fc20028 	lw	v0,40(s8)
    4a3c:	00000000 	nop
    4a40:	8c430004 	lw	v1,4(v0)
    4a44:	2402fffc 	li	v0,-4
    4a48:	00621024 	and	v0,v1,v0
    4a4c:	afc2002c 	sw	v0,44(s8)
    4a50:	3c020000 	lui	v0,0x0
    4a54:	24427428 	addiu	v0,v0,29736
    4a58:	8c430008 	lw	v1,8(v0)
    4a5c:	8fc20028 	lw	v0,40(s8)
    4a60:	00000000 	nop
    4a64:	14620049 	bne	v1,v0,4b8c <_free_r+0x1d8>
    4a68:	00000000 	nop
    4a6c:	8fc30014 	lw	v1,20(s8)
    4a70:	8fc2002c 	lw	v0,44(s8)
    4a74:	00000000 	nop
    4a78:	00621021 	addu	v0,v1,v0
    4a7c:	afc20014 	sw	v0,20(s8)
    4a80:	8fc20024 	lw	v0,36(s8)
    4a84:	00000000 	nop
    4a88:	30420001 	andi	v0,v0,0x1
    4a8c:	14400024 	bnez	v0,4b20 <_free_r+0x16c>
    4a90:	00000000 	nop
    4a94:	8fc20010 	lw	v0,16(s8)
    4a98:	00000000 	nop
    4a9c:	8c420000 	lw	v0,0(v0)
    4aa0:	00000000 	nop
    4aa4:	afc20030 	sw	v0,48(s8)
    4aa8:	8fc20030 	lw	v0,48(s8)
    4aac:	00000000 	nop
    4ab0:	00021023 	negu	v0,v0
    4ab4:	8fc30010 	lw	v1,16(s8)
    4ab8:	00000000 	nop
    4abc:	00621021 	addu	v0,v1,v0
    4ac0:	afc20010 	sw	v0,16(s8)
    4ac4:	8fc30014 	lw	v1,20(s8)
    4ac8:	8fc20030 	lw	v0,48(s8)
    4acc:	00000000 	nop
    4ad0:	00621021 	addu	v0,v1,v0
    4ad4:	afc20014 	sw	v0,20(s8)
    4ad8:	8fc20010 	lw	v0,16(s8)
    4adc:	00000000 	nop
    4ae0:	8c42000c 	lw	v0,12(v0)
    4ae4:	00000000 	nop
    4ae8:	afc20018 	sw	v0,24(s8)
    4aec:	8fc20010 	lw	v0,16(s8)
    4af0:	00000000 	nop
    4af4:	8c420008 	lw	v0,8(v0)
    4af8:	00000000 	nop
    4afc:	afc2001c 	sw	v0,28(s8)
    4b00:	8fc2001c 	lw	v0,28(s8)
    4b04:	8fc30018 	lw	v1,24(s8)
    4b08:	00000000 	nop
    4b0c:	ac43000c 	sw	v1,12(v0)
    4b10:	8fc20018 	lw	v0,24(s8)
    4b14:	8fc3001c 	lw	v1,28(s8)
    4b18:	00000000 	nop
    4b1c:	ac430008 	sw	v1,8(v0)
    4b20:	8fc20014 	lw	v0,20(s8)
    4b24:	00000000 	nop
    4b28:	34430001 	ori	v1,v0,0x1
    4b2c:	8fc20010 	lw	v0,16(s8)
    4b30:	00000000 	nop
    4b34:	ac430004 	sw	v1,4(v0)
    4b38:	3c020000 	lui	v0,0x0
    4b3c:	24427428 	addiu	v0,v0,29736
    4b40:	8fc30010 	lw	v1,16(s8)
    4b44:	00000000 	nop
    4b48:	ac430008 	sw	v1,8(v0)
    4b4c:	8f828018 	lw	v0,-32744(gp)
    4b50:	8fc30014 	lw	v1,20(s8)
    4b54:	00000000 	nop
    4b58:	0062102b 	sltu	v0,v1,v0
    4b5c:	14400006 	bnez	v0,4b78 <_free_r+0x1c4>
    4b60:	00000000 	nop
    4b64:	8f828020 	lw	v0,-32736(gp)
    4b68:	8fc40040 	lw	a0,64(s8)
    4b6c:	00402821 	move	a1,v0
    4b70:	0c001449 	jal	5124 <_malloc_trim_r>
    4b74:	00000000 	nop
    4b78:	8fc40040 	lw	a0,64(s8)
    4b7c:	0c000a2f 	jal	28bc <__malloc_unlock>
    4b80:	00000000 	nop
    4b84:	08001443 	j	510c <_free_r+0x758>
    4b88:	00000000 	nop
    4b8c:	8fc20028 	lw	v0,40(s8)
    4b90:	8fc3002c 	lw	v1,44(s8)
    4b94:	00000000 	nop
    4b98:	ac430004 	sw	v1,4(v0)
    4b9c:	afc00020 	sw	zero,32(s8)
    4ba0:	8fc20024 	lw	v0,36(s8)
    4ba4:	00000000 	nop
    4ba8:	30420001 	andi	v0,v0,0x1
    4bac:	1440002f 	bnez	v0,4c6c <_free_r+0x2b8>
    4bb0:	00000000 	nop
    4bb4:	8fc20010 	lw	v0,16(s8)
    4bb8:	00000000 	nop
    4bbc:	8c420000 	lw	v0,0(v0)
    4bc0:	00000000 	nop
    4bc4:	afc20030 	sw	v0,48(s8)
    4bc8:	8fc20030 	lw	v0,48(s8)
    4bcc:	00000000 	nop
    4bd0:	00021023 	negu	v0,v0
    4bd4:	8fc30010 	lw	v1,16(s8)
    4bd8:	00000000 	nop
    4bdc:	00621021 	addu	v0,v1,v0
    4be0:	afc20010 	sw	v0,16(s8)
    4be4:	8fc30014 	lw	v1,20(s8)
    4be8:	8fc20030 	lw	v0,48(s8)
    4bec:	00000000 	nop
    4bf0:	00621021 	addu	v0,v1,v0
    4bf4:	afc20014 	sw	v0,20(s8)
    4bf8:	8fc20010 	lw	v0,16(s8)
    4bfc:	00000000 	nop
    4c00:	8c430008 	lw	v1,8(v0)
    4c04:	3c020000 	lui	v0,0x0
    4c08:	24427430 	addiu	v0,v0,29744
    4c0c:	14620005 	bne	v1,v0,4c24 <_free_r+0x270>
    4c10:	00000000 	nop
    4c14:	24020001 	li	v0,1
    4c18:	afc20020 	sw	v0,32(s8)
    4c1c:	0800131b 	j	4c6c <_free_r+0x2b8>
    4c20:	00000000 	nop
    4c24:	8fc20010 	lw	v0,16(s8)
    4c28:	00000000 	nop
    4c2c:	8c42000c 	lw	v0,12(v0)
    4c30:	00000000 	nop
    4c34:	afc20018 	sw	v0,24(s8)
    4c38:	8fc20010 	lw	v0,16(s8)
    4c3c:	00000000 	nop
    4c40:	8c420008 	lw	v0,8(v0)
    4c44:	00000000 	nop
    4c48:	afc2001c 	sw	v0,28(s8)
    4c4c:	8fc2001c 	lw	v0,28(s8)
    4c50:	8fc30018 	lw	v1,24(s8)
    4c54:	00000000 	nop
    4c58:	ac43000c 	sw	v1,12(v0)
    4c5c:	8fc20018 	lw	v0,24(s8)
    4c60:	8fc3001c 	lw	v1,28(s8)
    4c64:	00000000 	nop
    4c68:	ac430008 	sw	v1,8(v0)
    4c6c:	8fc30028 	lw	v1,40(s8)
    4c70:	8fc2002c 	lw	v0,44(s8)
    4c74:	00000000 	nop
    4c78:	00621021 	addu	v0,v1,v0
    4c7c:	8c420004 	lw	v0,4(v0)
    4c80:	00000000 	nop
    4c84:	30420001 	andi	v0,v0,0x1
    4c88:	1440003b 	bnez	v0,4d78 <_free_r+0x3c4>
    4c8c:	00000000 	nop
    4c90:	8fc30014 	lw	v1,20(s8)
    4c94:	8fc2002c 	lw	v0,44(s8)
    4c98:	00000000 	nop
    4c9c:	00621021 	addu	v0,v1,v0
    4ca0:	afc20014 	sw	v0,20(s8)
    4ca4:	8fc20020 	lw	v0,32(s8)
    4ca8:	00000000 	nop
    4cac:	14400020 	bnez	v0,4d30 <_free_r+0x37c>
    4cb0:	00000000 	nop
    4cb4:	8fc20028 	lw	v0,40(s8)
    4cb8:	00000000 	nop
    4cbc:	8c430008 	lw	v1,8(v0)
    4cc0:	3c020000 	lui	v0,0x0
    4cc4:	24427430 	addiu	v0,v0,29744
    4cc8:	14620019 	bne	v1,v0,4d30 <_free_r+0x37c>
    4ccc:	00000000 	nop
    4cd0:	24020001 	li	v0,1
    4cd4:	afc20020 	sw	v0,32(s8)
    4cd8:	3c020000 	lui	v0,0x0
    4cdc:	24437430 	addiu	v1,v0,29744
    4ce0:	3c020000 	lui	v0,0x0
    4ce4:	24427430 	addiu	v0,v0,29744
    4ce8:	8fc40010 	lw	a0,16(s8)
    4cec:	00000000 	nop
    4cf0:	ac44000c 	sw	a0,12(v0)
    4cf4:	8c42000c 	lw	v0,12(v0)
    4cf8:	00000000 	nop
    4cfc:	ac620008 	sw	v0,8(v1)
    4d00:	8fc20010 	lw	v0,16(s8)
    4d04:	3c030000 	lui	v1,0x0
    4d08:	24637430 	addiu	v1,v1,29744
    4d0c:	ac43000c 	sw	v1,12(v0)
    4d10:	8fc20010 	lw	v0,16(s8)
    4d14:	00000000 	nop
    4d18:	8c43000c 	lw	v1,12(v0)
    4d1c:	8fc20010 	lw	v0,16(s8)
    4d20:	00000000 	nop
    4d24:	ac430008 	sw	v1,8(v0)
    4d28:	0800135e 	j	4d78 <_free_r+0x3c4>
    4d2c:	00000000 	nop
    4d30:	8fc20028 	lw	v0,40(s8)
    4d34:	00000000 	nop
    4d38:	8c42000c 	lw	v0,12(v0)
    4d3c:	00000000 	nop
    4d40:	afc20018 	sw	v0,24(s8)
    4d44:	8fc20028 	lw	v0,40(s8)
    4d48:	00000000 	nop
    4d4c:	8c420008 	lw	v0,8(v0)
    4d50:	00000000 	nop
    4d54:	afc2001c 	sw	v0,28(s8)
    4d58:	8fc2001c 	lw	v0,28(s8)
    4d5c:	8fc30018 	lw	v1,24(s8)
    4d60:	00000000 	nop
    4d64:	ac43000c 	sw	v1,12(v0)
    4d68:	8fc20018 	lw	v0,24(s8)
    4d6c:	8fc3001c 	lw	v1,28(s8)
    4d70:	00000000 	nop
    4d74:	ac430008 	sw	v1,8(v0)
    4d78:	8fc20014 	lw	v0,20(s8)
    4d7c:	00000000 	nop
    4d80:	34430001 	ori	v1,v0,0x1
    4d84:	8fc20010 	lw	v0,16(s8)
    4d88:	00000000 	nop
    4d8c:	ac430004 	sw	v1,4(v0)
    4d90:	8fc30010 	lw	v1,16(s8)
    4d94:	8fc20014 	lw	v0,20(s8)
    4d98:	00000000 	nop
    4d9c:	00621021 	addu	v0,v1,v0
    4da0:	8fc30014 	lw	v1,20(s8)
    4da4:	00000000 	nop
    4da8:	ac430000 	sw	v1,0(v0)
    4dac:	8fc20020 	lw	v0,32(s8)
    4db0:	00000000 	nop
    4db4:	144000d2 	bnez	v0,5100 <_free_r+0x74c>
    4db8:	00000000 	nop
    4dbc:	8fc20014 	lw	v0,20(s8)
    4dc0:	00000000 	nop
    4dc4:	2c420200 	sltiu	v0,v0,512
    4dc8:	10400035 	beqz	v0,4ea0 <_free_r+0x4ec>
    4dcc:	00000000 	nop
    4dd0:	8fc20014 	lw	v0,20(s8)
    4dd4:	00000000 	nop
    4dd8:	000210c2 	srl	v0,v0,0x3
    4ddc:	afc20034 	sw	v0,52(s8)
    4de0:	3c020000 	lui	v0,0x0
    4de4:	24437428 	addiu	v1,v0,29736
    4de8:	3c020000 	lui	v0,0x0
    4dec:	24427428 	addiu	v0,v0,29736
    4df0:	8c440004 	lw	a0,4(v0)
    4df4:	8fc20034 	lw	v0,52(s8)
    4df8:	00000000 	nop
    4dfc:	04410002 	bgez	v0,4e08 <_free_r+0x454>
    4e00:	00000000 	nop
    4e04:	24420003 	addiu	v0,v0,3
    4e08:	00021083 	sra	v0,v0,0x2
    4e0c:	24050001 	li	a1,1
    4e10:	00451004 	sllv	v0,a1,v0
    4e14:	00821025 	or	v0,a0,v0
    4e18:	ac620004 	sw	v0,4(v1)
    4e1c:	8fc20034 	lw	v0,52(s8)
    4e20:	00000000 	nop
    4e24:	00021040 	sll	v0,v0,0x1
    4e28:	00021880 	sll	v1,v0,0x2
    4e2c:	3c020000 	lui	v0,0x0
    4e30:	24427428 	addiu	v0,v0,29736
    4e34:	00621021 	addu	v0,v1,v0
    4e38:	afc20018 	sw	v0,24(s8)
    4e3c:	8fc20018 	lw	v0,24(s8)
    4e40:	00000000 	nop
    4e44:	8c420008 	lw	v0,8(v0)
    4e48:	00000000 	nop
    4e4c:	afc2001c 	sw	v0,28(s8)
    4e50:	8fc20010 	lw	v0,16(s8)
    4e54:	8fc30018 	lw	v1,24(s8)
    4e58:	00000000 	nop
    4e5c:	ac43000c 	sw	v1,12(v0)
    4e60:	8fc20010 	lw	v0,16(s8)
    4e64:	8fc3001c 	lw	v1,28(s8)
    4e68:	00000000 	nop
    4e6c:	ac430008 	sw	v1,8(v0)
    4e70:	8fc20018 	lw	v0,24(s8)
    4e74:	8fc30010 	lw	v1,16(s8)
    4e78:	00000000 	nop
    4e7c:	ac430008 	sw	v1,8(v0)
    4e80:	8fc20018 	lw	v0,24(s8)
    4e84:	00000000 	nop
    4e88:	8c430008 	lw	v1,8(v0)
    4e8c:	8fc2001c 	lw	v0,28(s8)
    4e90:	00000000 	nop
    4e94:	ac43000c 	sw	v1,12(v0)
    4e98:	08001440 	j	5100 <_free_r+0x74c>
    4e9c:	00000000 	nop
    4ea0:	8fc20014 	lw	v0,20(s8)
    4ea4:	00000000 	nop
    4ea8:	00021242 	srl	v0,v0,0x9
    4eac:	14400006 	bnez	v0,4ec8 <_free_r+0x514>
    4eb0:	00000000 	nop
    4eb4:	8fc20014 	lw	v0,20(s8)
    4eb8:	00000000 	nop
    4ebc:	000210c2 	srl	v0,v0,0x3
    4ec0:	080013ef 	j	4fbc <_free_r+0x608>
    4ec4:	00000000 	nop
    4ec8:	8fc20014 	lw	v0,20(s8)
    4ecc:	00000000 	nop
    4ed0:	00021242 	srl	v0,v0,0x9
    4ed4:	2c420005 	sltiu	v0,v0,5
    4ed8:	10400007 	beqz	v0,4ef8 <_free_r+0x544>
    4edc:	00000000 	nop
    4ee0:	8fc20014 	lw	v0,20(s8)
    4ee4:	00000000 	nop
    4ee8:	00021182 	srl	v0,v0,0x6
    4eec:	24420038 	addiu	v0,v0,56
    4ef0:	080013ef 	j	4fbc <_free_r+0x608>
    4ef4:	00000000 	nop
    4ef8:	8fc20014 	lw	v0,20(s8)
    4efc:	00000000 	nop
    4f00:	00021242 	srl	v0,v0,0x9
    4f04:	2c420015 	sltiu	v0,v0,21
    4f08:	10400007 	beqz	v0,4f28 <_free_r+0x574>
    4f0c:	00000000 	nop
    4f10:	8fc20014 	lw	v0,20(s8)
    4f14:	00000000 	nop
    4f18:	00021242 	srl	v0,v0,0x9
    4f1c:	2442005b 	addiu	v0,v0,91
    4f20:	080013ef 	j	4fbc <_free_r+0x608>
    4f24:	00000000 	nop
    4f28:	8fc20014 	lw	v0,20(s8)
    4f2c:	00000000 	nop
    4f30:	00021242 	srl	v0,v0,0x9
    4f34:	2c420055 	sltiu	v0,v0,85
    4f38:	10400007 	beqz	v0,4f58 <_free_r+0x5a4>
    4f3c:	00000000 	nop
    4f40:	8fc20014 	lw	v0,20(s8)
    4f44:	00000000 	nop
    4f48:	00021302 	srl	v0,v0,0xc
    4f4c:	2442006e 	addiu	v0,v0,110
    4f50:	080013ef 	j	4fbc <_free_r+0x608>
    4f54:	00000000 	nop
    4f58:	8fc20014 	lw	v0,20(s8)
    4f5c:	00000000 	nop
    4f60:	00021242 	srl	v0,v0,0x9
    4f64:	2c420155 	sltiu	v0,v0,341
    4f68:	10400007 	beqz	v0,4f88 <_free_r+0x5d4>
    4f6c:	00000000 	nop
    4f70:	8fc20014 	lw	v0,20(s8)
    4f74:	00000000 	nop
    4f78:	000213c2 	srl	v0,v0,0xf
    4f7c:	24420077 	addiu	v0,v0,119
    4f80:	080013ef 	j	4fbc <_free_r+0x608>
    4f84:	00000000 	nop
    4f88:	8fc20014 	lw	v0,20(s8)
    4f8c:	00000000 	nop
    4f90:	00021242 	srl	v0,v0,0x9
    4f94:	2c420555 	sltiu	v0,v0,1365
    4f98:	10400007 	beqz	v0,4fb8 <_free_r+0x604>
    4f9c:	00000000 	nop
    4fa0:	8fc20014 	lw	v0,20(s8)
    4fa4:	00000000 	nop
    4fa8:	00021482 	srl	v0,v0,0x12
    4fac:	2442007c 	addiu	v0,v0,124
    4fb0:	080013ef 	j	4fbc <_free_r+0x608>
    4fb4:	00000000 	nop
    4fb8:	2402007e 	li	v0,126
    4fbc:	afc20034 	sw	v0,52(s8)
    4fc0:	8fc20034 	lw	v0,52(s8)
    4fc4:	00000000 	nop
    4fc8:	00021040 	sll	v0,v0,0x1
    4fcc:	00021880 	sll	v1,v0,0x2
    4fd0:	3c020000 	lui	v0,0x0
    4fd4:	24427428 	addiu	v0,v0,29736
    4fd8:	00621021 	addu	v0,v1,v0
    4fdc:	afc20018 	sw	v0,24(s8)
    4fe0:	8fc20018 	lw	v0,24(s8)
    4fe4:	00000000 	nop
    4fe8:	8c420008 	lw	v0,8(v0)
    4fec:	00000000 	nop
    4ff0:	afc2001c 	sw	v0,28(s8)
    4ff4:	8fc3001c 	lw	v1,28(s8)
    4ff8:	8fc20018 	lw	v0,24(s8)
    4ffc:	00000000 	nop
    5000:	14620012 	bne	v1,v0,504c <_free_r+0x698>
    5004:	00000000 	nop
    5008:	3c020000 	lui	v0,0x0
    500c:	24437428 	addiu	v1,v0,29736
    5010:	3c020000 	lui	v0,0x0
    5014:	24427428 	addiu	v0,v0,29736
    5018:	8c440004 	lw	a0,4(v0)
    501c:	8fc20034 	lw	v0,52(s8)
    5020:	00000000 	nop
    5024:	04410002 	bgez	v0,5030 <_free_r+0x67c>
    5028:	00000000 	nop
    502c:	24420003 	addiu	v0,v0,3
    5030:	00021083 	sra	v0,v0,0x2
    5034:	24050001 	li	a1,1
    5038:	00451004 	sllv	v0,a1,v0
    503c:	00821025 	or	v0,a0,v0
    5040:	ac620004 	sw	v0,4(v1)
    5044:	0800142e 	j	50b8 <_free_r+0x704>
    5048:	00000000 	nop
    504c:	0800141a 	j	5068 <_free_r+0x6b4>
    5050:	00000000 	nop
    5054:	8fc2001c 	lw	v0,28(s8)
    5058:	00000000 	nop
    505c:	8c420008 	lw	v0,8(v0)
    5060:	00000000 	nop
    5064:	afc2001c 	sw	v0,28(s8)
    5068:	8fc3001c 	lw	v1,28(s8)
    506c:	8fc20018 	lw	v0,24(s8)
    5070:	00000000 	nop
    5074:	1062000b 	beq	v1,v0,50a4 <_free_r+0x6f0>
    5078:	00000000 	nop
    507c:	8fc2001c 	lw	v0,28(s8)
    5080:	00000000 	nop
    5084:	8c430004 	lw	v1,4(v0)
    5088:	2402fffc 	li	v0,-4
    508c:	00621824 	and	v1,v1,v0
    5090:	8fc20014 	lw	v0,20(s8)
    5094:	00000000 	nop
    5098:	0043102b 	sltu	v0,v0,v1
    509c:	1440ffed 	bnez	v0,5054 <_free_r+0x6a0>
    50a0:	00000000 	nop
    50a4:	8fc2001c 	lw	v0,28(s8)
    50a8:	00000000 	nop
    50ac:	8c42000c 	lw	v0,12(v0)
    50b0:	00000000 	nop
    50b4:	afc20018 	sw	v0,24(s8)
    50b8:	8fc20010 	lw	v0,16(s8)
    50bc:	8fc30018 	lw	v1,24(s8)
    50c0:	00000000 	nop
    50c4:	ac43000c 	sw	v1,12(v0)
    50c8:	8fc20010 	lw	v0,16(s8)
    50cc:	8fc3001c 	lw	v1,28(s8)
    50d0:	00000000 	nop
    50d4:	ac430008 	sw	v1,8(v0)
    50d8:	8fc20018 	lw	v0,24(s8)
    50dc:	8fc30010 	lw	v1,16(s8)
    50e0:	00000000 	nop
    50e4:	ac430008 	sw	v1,8(v0)
    50e8:	8fc20018 	lw	v0,24(s8)
    50ec:	00000000 	nop
    50f0:	8c430008 	lw	v1,8(v0)
    50f4:	8fc2001c 	lw	v0,28(s8)
    50f8:	00000000 	nop
    50fc:	ac43000c 	sw	v1,12(v0)
    5100:	8fc40040 	lw	a0,64(s8)
    5104:	0c000a2f 	jal	28bc <__malloc_unlock>
    5108:	00000000 	nop
    510c:	03c0e821 	move	sp,s8
    5110:	8fbf003c 	lw	ra,60(sp)
    5114:	8fbe0038 	lw	s8,56(sp)
    5118:	27bd0040 	addiu	sp,sp,64
    511c:	03e00008 	jr	ra
    5120:	00000000 	nop

00005124 <_malloc_trim_r>:
    5124:	27bdffd0 	addiu	sp,sp,-48
    5128:	afbf002c 	sw	ra,44(sp)
    512c:	afbe0028 	sw	s8,40(sp)
    5130:	03a0f021 	move	s8,sp
    5134:	afc40030 	sw	a0,48(s8)
    5138:	afc50034 	sw	a1,52(s8)
    513c:	24021000 	li	v0,4096
    5140:	afc20010 	sw	v0,16(s8)
    5144:	8fc40030 	lw	a0,48(s8)
    5148:	0c000a26 	jal	2898 <__malloc_lock>
    514c:	00000000 	nop
    5150:	3c020000 	lui	v0,0x0
    5154:	24427428 	addiu	v0,v0,29736
    5158:	8c420008 	lw	v0,8(v0)
    515c:	00000000 	nop
    5160:	8c420004 	lw	v0,4(v0)
    5164:	00000000 	nop
    5168:	00401821 	move	v1,v0
    516c:	2402fffc 	li	v0,-4
    5170:	00621024 	and	v0,v1,v0
    5174:	afc20014 	sw	v0,20(s8)
    5178:	8fc30014 	lw	v1,20(s8)
    517c:	8fc20034 	lw	v0,52(s8)
    5180:	00000000 	nop
    5184:	00621823 	subu	v1,v1,v0
    5188:	8fc20010 	lw	v0,16(s8)
    518c:	00000000 	nop
    5190:	00621021 	addu	v0,v1,v0
    5194:	2443ffef 	addiu	v1,v0,-17
    5198:	8fc20010 	lw	v0,16(s8)
    519c:	00000000 	nop
    51a0:	14400002 	bnez	v0,51ac <_malloc_trim_r+0x88>
    51a4:	0062001b 	divu	zero,v1,v0
    51a8:	0007000d 	break	0x7
    51ac:	00001810 	mfhi	v1
    51b0:	00001012 	mflo	v0
    51b4:	2443ffff 	addiu	v1,v0,-1
    51b8:	8fc20010 	lw	v0,16(s8)
    51bc:	00000000 	nop
    51c0:	00620018 	mult	v1,v0
    51c4:	00001012 	mflo	v0
    51c8:	afc20018 	sw	v0,24(s8)
    51cc:	8fc30010 	lw	v1,16(s8)
    51d0:	8fc20018 	lw	v0,24(s8)
    51d4:	00000000 	nop
    51d8:	0043102a 	slt	v0,v0,v1
    51dc:	10400007 	beqz	v0,51fc <_malloc_trim_r+0xd8>
    51e0:	00000000 	nop
    51e4:	8fc40030 	lw	a0,48(s8)
    51e8:	0c000a2f 	jal	28bc <__malloc_unlock>
    51ec:	00000000 	nop
    51f0:	00001021 	move	v0,zero
    51f4:	080014d8 	j	5360 <_malloc_trim_r+0x23c>
    51f8:	00000000 	nop
    51fc:	8fc40030 	lw	a0,48(s8)
    5200:	00002821 	move	a1,zero
    5204:	0c000e7d 	jal	39f4 <_sbrk_r>
    5208:	00000000 	nop
    520c:	afc2001c 	sw	v0,28(s8)
    5210:	3c020000 	lui	v0,0x0
    5214:	24427428 	addiu	v0,v0,29736
    5218:	8c430008 	lw	v1,8(v0)
    521c:	8fc20014 	lw	v0,20(s8)
    5220:	00000000 	nop
    5224:	00621821 	addu	v1,v1,v0
    5228:	8fc2001c 	lw	v0,28(s8)
    522c:	00000000 	nop
    5230:	10620007 	beq	v1,v0,5250 <_malloc_trim_r+0x12c>
    5234:	00000000 	nop
    5238:	8fc40030 	lw	a0,48(s8)
    523c:	0c000a2f 	jal	28bc <__malloc_unlock>
    5240:	00000000 	nop
    5244:	00001021 	move	v0,zero
    5248:	080014d8 	j	5360 <_malloc_trim_r+0x23c>
    524c:	00000000 	nop
    5250:	8fc20018 	lw	v0,24(s8)
    5254:	00000000 	nop
    5258:	00021023 	negu	v0,v0
    525c:	8fc40030 	lw	a0,48(s8)
    5260:	00402821 	move	a1,v0
    5264:	0c000e7d 	jal	39f4 <_sbrk_r>
    5268:	00000000 	nop
    526c:	afc20020 	sw	v0,32(s8)
    5270:	8fc30020 	lw	v1,32(s8)
    5274:	2402ffff 	li	v0,-1
    5278:	14620025 	bne	v1,v0,5310 <_malloc_trim_r+0x1ec>
    527c:	00000000 	nop
    5280:	8fc40030 	lw	a0,48(s8)
    5284:	00002821 	move	a1,zero
    5288:	0c000e7d 	jal	39f4 <_sbrk_r>
    528c:	00000000 	nop
    5290:	afc2001c 	sw	v0,28(s8)
    5294:	8fc3001c 	lw	v1,28(s8)
    5298:	3c020000 	lui	v0,0x0
    529c:	24427428 	addiu	v0,v0,29736
    52a0:	8c420008 	lw	v0,8(v0)
    52a4:	00000000 	nop
    52a8:	00621023 	subu	v0,v1,v0
    52ac:	afc20014 	sw	v0,20(s8)
    52b0:	8fc20014 	lw	v0,20(s8)
    52b4:	00000000 	nop
    52b8:	28420010 	slti	v0,v0,16
    52bc:	1440000e 	bnez	v0,52f8 <_malloc_trim_r+0x1d4>
    52c0:	00000000 	nop
    52c4:	8fc3001c 	lw	v1,28(s8)
    52c8:	8f82801c 	lw	v0,-32740(gp)
    52cc:	00000000 	nop
    52d0:	00621823 	subu	v1,v1,v0
    52d4:	3c020000 	lui	v0,0x0
    52d8:	ac43785c 	sw	v1,30812(v0)
    52dc:	3c020000 	lui	v0,0x0
    52e0:	24427428 	addiu	v0,v0,29736
    52e4:	8c420008 	lw	v0,8(v0)
    52e8:	8fc30014 	lw	v1,20(s8)
    52ec:	00000000 	nop
    52f0:	34630001 	ori	v1,v1,0x1
    52f4:	ac430004 	sw	v1,4(v0)
    52f8:	8fc40030 	lw	a0,48(s8)
    52fc:	0c000a2f 	jal	28bc <__malloc_unlock>
    5300:	00000000 	nop
    5304:	00001021 	move	v0,zero
    5308:	080014d8 	j	5360 <_malloc_trim_r+0x23c>
    530c:	00000000 	nop
    5310:	3c020000 	lui	v0,0x0
    5314:	24427428 	addiu	v0,v0,29736
    5318:	8c420008 	lw	v0,8(v0)
    531c:	8fc40014 	lw	a0,20(s8)
    5320:	8fc30018 	lw	v1,24(s8)
    5324:	00000000 	nop
    5328:	00831823 	subu	v1,a0,v1
    532c:	34630001 	ori	v1,v1,0x1
    5330:	ac430004 	sw	v1,4(v0)
    5334:	3c020000 	lui	v0,0x0
    5338:	8c43785c 	lw	v1,30812(v0)
    533c:	8fc20018 	lw	v0,24(s8)
    5340:	00000000 	nop
    5344:	00621823 	subu	v1,v1,v0
    5348:	3c020000 	lui	v0,0x0
    534c:	ac43785c 	sw	v1,30812(v0)
    5350:	8fc40030 	lw	a0,48(s8)
    5354:	0c000a2f 	jal	28bc <__malloc_unlock>
    5358:	00000000 	nop
    535c:	24020001 	li	v0,1
    5360:	03c0e821 	move	sp,s8
    5364:	8fbf002c 	lw	ra,44(sp)
    5368:	8fbe0028 	lw	s8,40(sp)
    536c:	27bd0030 	addiu	sp,sp,48
    5370:	03e00008 	jr	ra
    5374:	00000000 	nop

00005378 <_fwalk>:
    5378:	27bdffd0 	addiu	sp,sp,-48
    537c:	afbf002c 	sw	ra,44(sp)
    5380:	afbe0028 	sw	s8,40(sp)
    5384:	afb40024 	sw	s4,36(sp)
    5388:	afb30020 	sw	s3,32(sp)
    538c:	afb2001c 	sw	s2,28(sp)
    5390:	afb10018 	sw	s1,24(sp)
    5394:	afb00014 	sw	s0,20(sp)
    5398:	03a0f021 	move	s8,sp
    539c:	afc40030 	sw	a0,48(s8)
    53a0:	00a0a021 	move	s4,a1
    53a4:	00009021 	move	s2,zero
    53a8:	8fc20030 	lw	v0,48(s8)
    53ac:	00000000 	nop
    53b0:	245102e0 	addiu	s1,v0,736
    53b4:	0800150d 	j	5434 <_fwalk+0xbc>
    53b8:	00000000 	nop
    53bc:	8e300008 	lw	s0,8(s1)
    53c0:	8e330004 	lw	s3,4(s1)
    53c4:	08001508 	j	5420 <_fwalk+0xa8>
    53c8:	00000000 	nop
    53cc:	8602000c 	lh	v0,12(s0)
    53d0:	00000000 	nop
    53d4:	10400011 	beqz	v0,541c <_fwalk+0xa4>
    53d8:	00000000 	nop
    53dc:	8602000c 	lh	v0,12(s0)
    53e0:	00000000 	nop
    53e4:	1040000d 	beqz	v0,541c <_fwalk+0xa4>
    53e8:	00000000 	nop
    53ec:	8603000c 	lh	v1,12(s0)
    53f0:	24020001 	li	v0,1
    53f4:	10620009 	beq	v1,v0,541c <_fwalk+0xa4>
    53f8:	00000000 	nop
    53fc:	8603000e 	lh	v1,14(s0)
    5400:	2402ffff 	li	v0,-1
    5404:	10620005 	beq	v1,v0,541c <_fwalk+0xa4>
    5408:	00000000 	nop
    540c:	02002021 	move	a0,s0
    5410:	0280f809 	jalr	s4
    5414:	00000000 	nop
    5418:	02429025 	or	s2,s2,v0
    541c:	26100068 	addiu	s0,s0,104
    5420:	2673ffff 	addiu	s3,s3,-1
    5424:	0661ffe9 	bgez	s3,53cc <_fwalk+0x54>
    5428:	00000000 	nop
    542c:	8e310000 	lw	s1,0(s1)
    5430:	00000000 	nop
    5434:	1620ffe1 	bnez	s1,53bc <_fwalk+0x44>
    5438:	00000000 	nop
    543c:	02401021 	move	v0,s2
    5440:	03c0e821 	move	sp,s8
    5444:	8fbf002c 	lw	ra,44(sp)
    5448:	8fbe0028 	lw	s8,40(sp)
    544c:	8fb40024 	lw	s4,36(sp)
    5450:	8fb30020 	lw	s3,32(sp)
    5454:	8fb2001c 	lw	s2,28(sp)
    5458:	8fb10018 	lw	s1,24(sp)
    545c:	8fb00014 	lw	s0,20(sp)
    5460:	27bd0030 	addiu	sp,sp,48
    5464:	03e00008 	jr	ra
    5468:	00000000 	nop

0000546c <_fwalk_reent>:
    546c:	27bdffd0 	addiu	sp,sp,-48
    5470:	afbf002c 	sw	ra,44(sp)
    5474:	afbe0028 	sw	s8,40(sp)
    5478:	afb40024 	sw	s4,36(sp)
    547c:	afb30020 	sw	s3,32(sp)
    5480:	afb2001c 	sw	s2,28(sp)
    5484:	afb10018 	sw	s1,24(sp)
    5488:	afb00014 	sw	s0,20(sp)
    548c:	03a0f021 	move	s8,sp
    5490:	afc40030 	sw	a0,48(s8)
    5494:	00a0a021 	move	s4,a1
    5498:	00009021 	move	s2,zero
    549c:	8fc20030 	lw	v0,48(s8)
    54a0:	00000000 	nop
    54a4:	245102e0 	addiu	s1,v0,736
    54a8:	0800154b 	j	552c <_fwalk_reent+0xc0>
    54ac:	00000000 	nop
    54b0:	8e300008 	lw	s0,8(s1)
    54b4:	8e330004 	lw	s3,4(s1)
    54b8:	08001546 	j	5518 <_fwalk_reent+0xac>
    54bc:	00000000 	nop
    54c0:	8602000c 	lh	v0,12(s0)
    54c4:	00000000 	nop
    54c8:	10400012 	beqz	v0,5514 <_fwalk_reent+0xa8>
    54cc:	00000000 	nop
    54d0:	8602000c 	lh	v0,12(s0)
    54d4:	00000000 	nop
    54d8:	1040000e 	beqz	v0,5514 <_fwalk_reent+0xa8>
    54dc:	00000000 	nop
    54e0:	8603000c 	lh	v1,12(s0)
    54e4:	24020001 	li	v0,1
    54e8:	1062000a 	beq	v1,v0,5514 <_fwalk_reent+0xa8>
    54ec:	00000000 	nop
    54f0:	8603000e 	lh	v1,14(s0)
    54f4:	2402ffff 	li	v0,-1
    54f8:	10620006 	beq	v1,v0,5514 <_fwalk_reent+0xa8>
    54fc:	00000000 	nop
    5500:	8fc40030 	lw	a0,48(s8)
    5504:	02002821 	move	a1,s0
    5508:	0280f809 	jalr	s4
    550c:	00000000 	nop
    5510:	02429025 	or	s2,s2,v0
    5514:	26100068 	addiu	s0,s0,104
    5518:	2673ffff 	addiu	s3,s3,-1
    551c:	0661ffe8 	bgez	s3,54c0 <_fwalk_reent+0x54>
    5520:	00000000 	nop
    5524:	8e310000 	lw	s1,0(s1)
    5528:	00000000 	nop
    552c:	1620ffe0 	bnez	s1,54b0 <_fwalk_reent+0x44>
    5530:	00000000 	nop
    5534:	02401021 	move	v0,s2
    5538:	03c0e821 	move	sp,s8
    553c:	8fbf002c 	lw	ra,44(sp)
    5540:	8fbe0028 	lw	s8,40(sp)
    5544:	8fb40024 	lw	s4,36(sp)
    5548:	8fb30020 	lw	s3,32(sp)
    554c:	8fb2001c 	lw	s2,28(sp)
    5550:	8fb10018 	lw	s1,24(sp)
    5554:	8fb00014 	lw	s0,20(sp)
    5558:	27bd0030 	addiu	sp,sp,48
    555c:	03e00008 	jr	ra
    5560:	00000000 	nop

00005564 <__smakebuf_r>:
    5564:	27bdff98 	addiu	sp,sp,-104
    5568:	afbf0064 	sw	ra,100(sp)
    556c:	afbe0060 	sw	s8,96(sp)
    5570:	afb3005c 	sw	s3,92(sp)
    5574:	afb20058 	sw	s2,88(sp)
    5578:	afb10054 	sw	s1,84(sp)
    557c:	afb00050 	sw	s0,80(sp)
    5580:	03a0f021 	move	s8,sp
    5584:	afc40068 	sw	a0,104(s8)
    5588:	00a08021 	move	s0,a1
    558c:	8602000c 	lh	v0,12(s0)
    5590:	00000000 	nop
    5594:	3042ffff 	andi	v0,v0,0xffff
    5598:	30420002 	andi	v0,v0,0x2
    559c:	1040000a 	beqz	v0,55c8 <__smakebuf_r+0x64>
    55a0:	00000000 	nop
    55a4:	26020043 	addiu	v0,s0,67
    55a8:	ae020000 	sw	v0,0(s0)
    55ac:	8e020000 	lw	v0,0(s0)
    55b0:	00000000 	nop
    55b4:	ae020010 	sw	v0,16(s0)
    55b8:	24020001 	li	v0,1
    55bc:	ae020014 	sw	v0,20(s0)
    55c0:	080015f0 	j	57c0 <__smakebuf_r+0x25c>
    55c4:	00000000 	nop
    55c8:	8602000e 	lh	v0,14(s0)
    55cc:	00000000 	nop
    55d0:	0440000a 	bltz	v0,55fc <__smakebuf_r+0x98>
    55d4:	00000000 	nop
    55d8:	8602000e 	lh	v0,14(s0)
    55dc:	8fc40068 	lw	a0,104(s8)
    55e0:	00402821 	move	a1,v0
    55e4:	27c20010 	addiu	v0,s8,16
    55e8:	00403021 	move	a2,v0
    55ec:	0c0018ea 	jal	63a8 <_fstat_r>
    55f0:	00000000 	nop
    55f4:	04410014 	bgez	v0,5648 <__smakebuf_r+0xe4>
    55f8:	00000000 	nop
    55fc:	00009021 	move	s2,zero
    5600:	8602000c 	lh	v0,12(s0)
    5604:	00000000 	nop
    5608:	3042ffff 	andi	v0,v0,0xffff
    560c:	30420080 	andi	v0,v0,0x80
    5610:	10400004 	beqz	v0,5624 <__smakebuf_r+0xc0>
    5614:	00000000 	nop
    5618:	24110040 	li	s1,64
    561c:	0800158a 	j	5628 <__smakebuf_r+0xc4>
    5620:	00000000 	nop
    5624:	24110400 	li	s1,1024
    5628:	8602000c 	lh	v0,12(s0)
    562c:	00000000 	nop
    5630:	34420800 	ori	v0,v0,0x800
    5634:	00021400 	sll	v0,v0,0x10
    5638:	00021403 	sra	v0,v0,0x10
    563c:	a602000c 	sh	v0,12(s0)
    5640:	080015b5 	j	56d4 <__smakebuf_r+0x170>
    5644:	00000000 	nop
    5648:	8fc20014 	lw	v0,20(s8)
    564c:	00000000 	nop
    5650:	3042f000 	andi	v0,v0,0xf000
    5654:	38422000 	xori	v0,v0,0x2000
    5658:	2c420001 	sltiu	v0,v0,1
    565c:	304200ff 	andi	v0,v0,0xff
    5660:	00409021 	move	s2,v0
    5664:	24110400 	li	s1,1024
    5668:	8fc20014 	lw	v0,20(s8)
    566c:	00000000 	nop
    5670:	3043f000 	andi	v1,v0,0xf000
    5674:	34028000 	li	v0,0x8000
    5678:	14620010 	bne	v1,v0,56bc <__smakebuf_r+0x158>
    567c:	00000000 	nop
    5680:	8e030028 	lw	v1,40(s0)
    5684:	3c020000 	lui	v0,0x0
    5688:	24425fc4 	addiu	v0,v0,24516
    568c:	1462000b 	bne	v1,v0,56bc <__smakebuf_r+0x158>
    5690:	00000000 	nop
    5694:	8602000c 	lh	v0,12(s0)
    5698:	00000000 	nop
    569c:	34420400 	ori	v0,v0,0x400
    56a0:	00021400 	sll	v0,v0,0x10
    56a4:	00021403 	sra	v0,v0,0x10
    56a8:	a602000c 	sh	v0,12(s0)
    56ac:	24020400 	li	v0,1024
    56b0:	ae02004c 	sw	v0,76(s0)
    56b4:	080015b5 	j	56d4 <__smakebuf_r+0x170>
    56b8:	00000000 	nop
    56bc:	8602000c 	lh	v0,12(s0)
    56c0:	00000000 	nop
    56c4:	34420800 	ori	v0,v0,0x800
    56c8:	00021400 	sll	v0,v0,0x10
    56cc:	00021403 	sra	v0,v0,0x10
    56d0:	a602000c 	sh	v0,12(s0)
    56d4:	8fc40068 	lw	a0,104(s8)
    56d8:	02202821 	move	a1,s1
    56dc:	0c0003e4 	jal	f90 <_malloc_r>
    56e0:	00000000 	nop
    56e4:	00409821 	move	s3,v0
    56e8:	16600016 	bnez	s3,5744 <__smakebuf_r+0x1e0>
    56ec:	00000000 	nop
    56f0:	8602000c 	lh	v0,12(s0)
    56f4:	00000000 	nop
    56f8:	3042ffff 	andi	v0,v0,0xffff
    56fc:	30420200 	andi	v0,v0,0x200
    5700:	1440002f 	bnez	v0,57c0 <__smakebuf_r+0x25c>
    5704:	00000000 	nop
    5708:	8602000c 	lh	v0,12(s0)
    570c:	00000000 	nop
    5710:	34420002 	ori	v0,v0,0x2
    5714:	00021400 	sll	v0,v0,0x10
    5718:	00021403 	sra	v0,v0,0x10
    571c:	a602000c 	sh	v0,12(s0)
    5720:	26020043 	addiu	v0,s0,67
    5724:	ae020000 	sw	v0,0(s0)
    5728:	8e020000 	lw	v0,0(s0)
    572c:	00000000 	nop
    5730:	ae020010 	sw	v0,16(s0)
    5734:	24020001 	li	v0,1
    5738:	ae020014 	sw	v0,20(s0)
    573c:	080015f0 	j	57c0 <__smakebuf_r+0x25c>
    5740:	00000000 	nop
    5744:	8fc20068 	lw	v0,104(s8)
    5748:	3c030000 	lui	v1,0x0
    574c:	246346a8 	addiu	v1,v1,18088
    5750:	ac43003c 	sw	v1,60(v0)
    5754:	8602000c 	lh	v0,12(s0)
    5758:	00000000 	nop
    575c:	34420080 	ori	v0,v0,0x80
    5760:	00021400 	sll	v0,v0,0x10
    5764:	00021403 	sra	v0,v0,0x10
    5768:	a602000c 	sh	v0,12(s0)
    576c:	ae130000 	sw	s3,0(s0)
    5770:	8e020000 	lw	v0,0(s0)
    5774:	00000000 	nop
    5778:	ae020010 	sw	v0,16(s0)
    577c:	02201021 	move	v0,s1
    5780:	ae020014 	sw	v0,20(s0)
    5784:	1240000e 	beqz	s2,57c0 <__smakebuf_r+0x25c>
    5788:	00000000 	nop
    578c:	8602000e 	lh	v0,14(s0)
    5790:	8fc40068 	lw	a0,104(s8)
    5794:	00402821 	move	a1,v0
    5798:	0c00190a 	jal	6428 <_isatty_r>
    579c:	00000000 	nop
    57a0:	10400007 	beqz	v0,57c0 <__smakebuf_r+0x25c>
    57a4:	00000000 	nop
    57a8:	8602000c 	lh	v0,12(s0)
    57ac:	00000000 	nop
    57b0:	34420001 	ori	v0,v0,0x1
    57b4:	00021400 	sll	v0,v0,0x10
    57b8:	00021403 	sra	v0,v0,0x10
    57bc:	a602000c 	sh	v0,12(s0)
    57c0:	03c0e821 	move	sp,s8
    57c4:	8fbf0064 	lw	ra,100(sp)
    57c8:	8fbe0060 	lw	s8,96(sp)
    57cc:	8fb3005c 	lw	s3,92(sp)
    57d0:	8fb20058 	lw	s2,88(sp)
    57d4:	8fb10054 	lw	s1,84(sp)
    57d8:	8fb00050 	lw	s0,80(sp)
    57dc:	27bd0068 	addiu	sp,sp,104
    57e0:	03e00008 	jr	ra
    57e4:	00000000 	nop

000057e8 <memset>:
    57e8:	27bdffe0 	addiu	sp,sp,-32
    57ec:	afbe001c 	sw	s8,28(sp)
    57f0:	03a0f021 	move	s8,sp
    57f4:	afc40020 	sw	a0,32(s8)
    57f8:	afc50024 	sw	a1,36(s8)
    57fc:	afc60028 	sw	a2,40(s8)
    5800:	8fc20020 	lw	v0,32(s8)
    5804:	00000000 	nop
    5808:	afc20000 	sw	v0,0(s8)
    580c:	8fc20028 	lw	v0,40(s8)
    5810:	00000000 	nop
    5814:	2c420010 	sltiu	v0,v0,16
    5818:	14400070 	bnez	v0,59dc <memset+0x1f4>
    581c:	00000000 	nop
    5820:	8fc20000 	lw	v0,0(s8)
    5824:	00000000 	nop
    5828:	30420003 	andi	v0,v0,0x3
    582c:	afc20010 	sw	v0,16(s8)
    5830:	8fc20010 	lw	v0,16(s8)
    5834:	00000000 	nop
    5838:	10400017 	beqz	v0,5898 <memset+0xb0>
    583c:	00000000 	nop
    5840:	0800161f 	j	587c <memset+0x94>
    5844:	00000000 	nop
    5848:	8fc20000 	lw	v0,0(s8)
    584c:	00000000 	nop
    5850:	24430001 	addiu	v1,v0,1
    5854:	afc30000 	sw	v1,0(s8)
    5858:	8fc30024 	lw	v1,36(s8)
    585c:	00000000 	nop
    5860:	00031e00 	sll	v1,v1,0x18
    5864:	00031e03 	sra	v1,v1,0x18
    5868:	a0430000 	sb	v1,0(v0)
    586c:	8fc20028 	lw	v0,40(s8)
    5870:	00000000 	nop
    5874:	2442ffff 	addiu	v0,v0,-1
    5878:	afc20028 	sw	v0,40(s8)
    587c:	8fc20010 	lw	v0,16(s8)
    5880:	00000000 	nop
    5884:	24430001 	addiu	v1,v0,1
    5888:	afc30010 	sw	v1,16(s8)
    588c:	2c420004 	sltiu	v0,v0,4
    5890:	1440ffed 	bnez	v0,5848 <memset+0x60>
    5894:	00000000 	nop
    5898:	8fc20000 	lw	v0,0(s8)
    589c:	00000000 	nop
    58a0:	afc20008 	sw	v0,8(s8)
    58a4:	8fc20024 	lw	v0,36(s8)
    58a8:	00000000 	nop
    58ac:	304200ff 	andi	v0,v0,0xff
    58b0:	afc20024 	sw	v0,36(s8)
    58b4:	8fc20024 	lw	v0,36(s8)
    58b8:	00000000 	nop
    58bc:	afc20004 	sw	v0,4(s8)
    58c0:	8fc20004 	lw	v0,4(s8)
    58c4:	00000000 	nop
    58c8:	1040000f 	beqz	v0,5908 <memset+0x120>
    58cc:	00000000 	nop
    58d0:	8fc20004 	lw	v0,4(s8)
    58d4:	00000000 	nop
    58d8:	00021200 	sll	v0,v0,0x8
    58dc:	8fc30004 	lw	v1,4(s8)
    58e0:	00000000 	nop
    58e4:	00621025 	or	v0,v1,v0
    58e8:	afc20004 	sw	v0,4(s8)
    58ec:	8fc20004 	lw	v0,4(s8)
    58f0:	00000000 	nop
    58f4:	00021400 	sll	v0,v0,0x10
    58f8:	8fc30004 	lw	v1,4(s8)
    58fc:	00000000 	nop
    5900:	00621025 	or	v0,v1,v0
    5904:	afc20004 	sw	v0,4(s8)
    5908:	8fc20028 	lw	v0,40(s8)
    590c:	00000000 	nop
    5910:	000210c2 	srl	v0,v0,0x3
    5914:	afc2000c 	sw	v0,12(s8)
    5918:	8fc20028 	lw	v0,40(s8)
    591c:	00000000 	nop
    5920:	30420007 	andi	v0,v0,0x7
    5924:	afc20028 	sw	v0,40(s8)
    5928:	0800165e 	j	5978 <memset+0x190>
    592c:	00000000 	nop
    5930:	8fc20008 	lw	v0,8(s8)
    5934:	8fc30004 	lw	v1,4(s8)
    5938:	00000000 	nop
    593c:	ac430000 	sw	v1,0(v0)
    5940:	8fc20008 	lw	v0,8(s8)
    5944:	00000000 	nop
    5948:	24420004 	addiu	v0,v0,4
    594c:	8fc30004 	lw	v1,4(s8)
    5950:	00000000 	nop
    5954:	ac430000 	sw	v1,0(v0)
    5958:	8fc20008 	lw	v0,8(s8)
    595c:	00000000 	nop
    5960:	24420008 	addiu	v0,v0,8
    5964:	afc20008 	sw	v0,8(s8)
    5968:	8fc2000c 	lw	v0,12(s8)
    596c:	00000000 	nop
    5970:	2442ffff 	addiu	v0,v0,-1
    5974:	afc2000c 	sw	v0,12(s8)
    5978:	8fc2000c 	lw	v0,12(s8)
    597c:	00000000 	nop
    5980:	1440ffeb 	bnez	v0,5930 <memset+0x148>
    5984:	00000000 	nop
    5988:	8fc20028 	lw	v0,40(s8)
    598c:	00000000 	nop
    5990:	2c420004 	sltiu	v0,v0,4
    5994:	1440000c 	bnez	v0,59c8 <memset+0x1e0>
    5998:	00000000 	nop
    599c:	8fc20008 	lw	v0,8(s8)
    59a0:	00000000 	nop
    59a4:	24430004 	addiu	v1,v0,4
    59a8:	afc30008 	sw	v1,8(s8)
    59ac:	8fc30004 	lw	v1,4(s8)
    59b0:	00000000 	nop
    59b4:	ac430000 	sw	v1,0(v0)
    59b8:	8fc20028 	lw	v0,40(s8)
    59bc:	00000000 	nop
    59c0:	2442fffc 	addiu	v0,v0,-4
    59c4:	afc20028 	sw	v0,40(s8)
    59c8:	8fc20008 	lw	v0,8(s8)
    59cc:	00000000 	nop
    59d0:	afc20000 	sw	v0,0(s8)
    59d4:	08001686 	j	5a18 <memset+0x230>
    59d8:	00000000 	nop
    59dc:	08001686 	j	5a18 <memset+0x230>
    59e0:	00000000 	nop
    59e4:	8fc20000 	lw	v0,0(s8)
    59e8:	00000000 	nop
    59ec:	24430001 	addiu	v1,v0,1
    59f0:	afc30000 	sw	v1,0(s8)
    59f4:	8fc30024 	lw	v1,36(s8)
    59f8:	00000000 	nop
    59fc:	00031e00 	sll	v1,v1,0x18
    5a00:	00031e03 	sra	v1,v1,0x18
    5a04:	a0430000 	sb	v1,0(v0)
    5a08:	8fc20028 	lw	v0,40(s8)
    5a0c:	00000000 	nop
    5a10:	2442ffff 	addiu	v0,v0,-1
    5a14:	afc20028 	sw	v0,40(s8)
    5a18:	8fc20028 	lw	v0,40(s8)
    5a1c:	00000000 	nop
    5a20:	1440fff0 	bnez	v0,59e4 <memset+0x1fc>
    5a24:	00000000 	nop
    5a28:	8fc20020 	lw	v0,32(s8)
    5a2c:	03c0e821 	move	sp,s8
    5a30:	8fbe001c 	lw	s8,28(sp)
    5a34:	27bd0020 	addiu	sp,sp,32
    5a38:	03e00008 	jr	ra
    5a3c:	00000000 	nop

00005a40 <cleanup_glue>:
    5a40:	27bdffe8 	addiu	sp,sp,-24
    5a44:	afbf0014 	sw	ra,20(sp)
    5a48:	afbe0010 	sw	s8,16(sp)
    5a4c:	03a0f021 	move	s8,sp
    5a50:	afc40018 	sw	a0,24(s8)
    5a54:	afc5001c 	sw	a1,28(s8)
    5a58:	8fc2001c 	lw	v0,28(s8)
    5a5c:	00000000 	nop
    5a60:	8c420000 	lw	v0,0(v0)
    5a64:	00000000 	nop
    5a68:	10400008 	beqz	v0,5a8c <cleanup_glue+0x4c>
    5a6c:	00000000 	nop
    5a70:	8fc2001c 	lw	v0,28(s8)
    5a74:	00000000 	nop
    5a78:	8c420000 	lw	v0,0(v0)
    5a7c:	8fc40018 	lw	a0,24(s8)
    5a80:	00402821 	move	a1,v0
    5a84:	0c001690 	jal	5a40 <cleanup_glue>
    5a88:	00000000 	nop
    5a8c:	8fc40018 	lw	a0,24(s8)
    5a90:	8fc5001c 	lw	a1,28(s8)
    5a94:	0c00126d 	jal	49b4 <_free_r>
    5a98:	00000000 	nop
    5a9c:	03c0e821 	move	sp,s8
    5aa0:	8fbf0014 	lw	ra,20(sp)
    5aa4:	8fbe0010 	lw	s8,16(sp)
    5aa8:	27bd0018 	addiu	sp,sp,24
    5aac:	03e00008 	jr	ra
    5ab0:	00000000 	nop

00005ab4 <_reclaim_reent>:
    5ab4:	27bdffd0 	addiu	sp,sp,-48
    5ab8:	afbf002c 	sw	ra,44(sp)
    5abc:	afbe0028 	sw	s8,40(sp)
    5ac0:	03a0f021 	move	s8,sp
    5ac4:	afc40030 	sw	a0,48(s8)
    5ac8:	8f828010 	lw	v0,-32752(gp)
    5acc:	8fc30030 	lw	v1,48(s8)
    5ad0:	00000000 	nop
    5ad4:	10620091 	beq	v1,v0,5d1c <_reclaim_reent+0x268>
    5ad8:	00000000 	nop
    5adc:	8fc20030 	lw	v0,48(s8)
    5ae0:	00000000 	nop
    5ae4:	8c42004c 	lw	v0,76(v0)
    5ae8:	00000000 	nop
    5aec:	10400030 	beqz	v0,5bb0 <_reclaim_reent+0xfc>
    5af0:	00000000 	nop
    5af4:	afc00010 	sw	zero,16(s8)
    5af8:	080016e0 	j	5b80 <_reclaim_reent+0xcc>
    5afc:	00000000 	nop
    5b00:	8fc20030 	lw	v0,48(s8)
    5b04:	00000000 	nop
    5b08:	8c43004c 	lw	v1,76(v0)
    5b0c:	8fc20010 	lw	v0,16(s8)
    5b10:	00000000 	nop
    5b14:	00021080 	sll	v0,v0,0x2
    5b18:	00621021 	addu	v0,v1,v0
    5b1c:	8c420000 	lw	v0,0(v0)
    5b20:	00000000 	nop
    5b24:	afc20014 	sw	v0,20(s8)
    5b28:	080016d8 	j	5b60 <_reclaim_reent+0xac>
    5b2c:	00000000 	nop
    5b30:	8fc20014 	lw	v0,20(s8)
    5b34:	00000000 	nop
    5b38:	afc2001c 	sw	v0,28(s8)
    5b3c:	8fc20014 	lw	v0,20(s8)
    5b40:	00000000 	nop
    5b44:	8c420000 	lw	v0,0(v0)
    5b48:	00000000 	nop
    5b4c:	afc20014 	sw	v0,20(s8)
    5b50:	8fc40030 	lw	a0,48(s8)
    5b54:	8fc5001c 	lw	a1,28(s8)
    5b58:	0c00126d 	jal	49b4 <_free_r>
    5b5c:	00000000 	nop
    5b60:	8fc20014 	lw	v0,20(s8)
    5b64:	00000000 	nop
    5b68:	1440fff1 	bnez	v0,5b30 <_reclaim_reent+0x7c>
    5b6c:	00000000 	nop
    5b70:	8fc20010 	lw	v0,16(s8)
    5b74:	00000000 	nop
    5b78:	24420001 	addiu	v0,v0,1
    5b7c:	afc20010 	sw	v0,16(s8)
    5b80:	8fc20010 	lw	v0,16(s8)
    5b84:	00000000 	nop
    5b88:	2c420020 	sltiu	v0,v0,32
    5b8c:	1440ffdc 	bnez	v0,5b00 <_reclaim_reent+0x4c>
    5b90:	00000000 	nop
    5b94:	8fc20030 	lw	v0,48(s8)
    5b98:	00000000 	nop
    5b9c:	8c42004c 	lw	v0,76(v0)
    5ba0:	8fc40030 	lw	a0,48(s8)
    5ba4:	00402821 	move	a1,v0
    5ba8:	0c00126d 	jal	49b4 <_free_r>
    5bac:	00000000 	nop
    5bb0:	8fc20030 	lw	v0,48(s8)
    5bb4:	00000000 	nop
    5bb8:	8c420040 	lw	v0,64(v0)
    5bbc:	00000000 	nop
    5bc0:	10400008 	beqz	v0,5be4 <_reclaim_reent+0x130>
    5bc4:	00000000 	nop
    5bc8:	8fc20030 	lw	v0,48(s8)
    5bcc:	00000000 	nop
    5bd0:	8c420040 	lw	v0,64(v0)
    5bd4:	8fc40030 	lw	a0,48(s8)
    5bd8:	00402821 	move	a1,v0
    5bdc:	0c00126d 	jal	49b4 <_free_r>
    5be0:	00000000 	nop
    5be4:	8fc20030 	lw	v0,48(s8)
    5be8:	00000000 	nop
    5bec:	8c420148 	lw	v0,328(v0)
    5bf0:	00000000 	nop
    5bf4:	10400023 	beqz	v0,5c84 <_reclaim_reent+0x1d0>
    5bf8:	00000000 	nop
    5bfc:	8fc20030 	lw	v0,48(s8)
    5c00:	00000000 	nop
    5c04:	8c430148 	lw	v1,328(v0)
    5c08:	8fc20030 	lw	v0,48(s8)
    5c0c:	00000000 	nop
    5c10:	2442014c 	addiu	v0,v0,332
    5c14:	1062001b 	beq	v1,v0,5c84 <_reclaim_reent+0x1d0>
    5c18:	00000000 	nop
    5c1c:	8fc20030 	lw	v0,48(s8)
    5c20:	00000000 	nop
    5c24:	8c420148 	lw	v0,328(v0)
    5c28:	00000000 	nop
    5c2c:	afc20018 	sw	v0,24(s8)
    5c30:	0800171a 	j	5c68 <_reclaim_reent+0x1b4>
    5c34:	00000000 	nop
    5c38:	8fc20018 	lw	v0,24(s8)
    5c3c:	00000000 	nop
    5c40:	afc20020 	sw	v0,32(s8)
    5c44:	8fc20018 	lw	v0,24(s8)
    5c48:	00000000 	nop
    5c4c:	8c420000 	lw	v0,0(v0)
    5c50:	00000000 	nop
    5c54:	afc20018 	sw	v0,24(s8)
    5c58:	8fc40030 	lw	a0,48(s8)
    5c5c:	8fc50020 	lw	a1,32(s8)
    5c60:	0c00126d 	jal	49b4 <_free_r>
    5c64:	00000000 	nop
    5c68:	8fc20030 	lw	v0,48(s8)
    5c6c:	00000000 	nop
    5c70:	2443014c 	addiu	v1,v0,332
    5c74:	8fc20018 	lw	v0,24(s8)
    5c78:	00000000 	nop
    5c7c:	1462ffee 	bne	v1,v0,5c38 <_reclaim_reent+0x184>
    5c80:	00000000 	nop
    5c84:	8fc20030 	lw	v0,48(s8)
    5c88:	00000000 	nop
    5c8c:	8c420054 	lw	v0,84(v0)
    5c90:	00000000 	nop
    5c94:	10400008 	beqz	v0,5cb8 <_reclaim_reent+0x204>
    5c98:	00000000 	nop
    5c9c:	8fc20030 	lw	v0,48(s8)
    5ca0:	00000000 	nop
    5ca4:	8c420054 	lw	v0,84(v0)
    5ca8:	8fc40030 	lw	a0,48(s8)
    5cac:	00402821 	move	a1,v0
    5cb0:	0c00126d 	jal	49b4 <_free_r>
    5cb4:	00000000 	nop
    5cb8:	8fc20030 	lw	v0,48(s8)
    5cbc:	00000000 	nop
    5cc0:	8c420038 	lw	v0,56(v0)
    5cc4:	00000000 	nop
    5cc8:	10400014 	beqz	v0,5d1c <_reclaim_reent+0x268>
    5ccc:	00000000 	nop
    5cd0:	8fc20030 	lw	v0,48(s8)
    5cd4:	00000000 	nop
    5cd8:	8c42003c 	lw	v0,60(v0)
    5cdc:	8fc40030 	lw	a0,48(s8)
    5ce0:	0040f809 	jalr	v0
    5ce4:	00000000 	nop
    5ce8:	8fc20030 	lw	v0,48(s8)
    5cec:	00000000 	nop
    5cf0:	8c4202e0 	lw	v0,736(v0)
    5cf4:	00000000 	nop
    5cf8:	10400008 	beqz	v0,5d1c <_reclaim_reent+0x268>
    5cfc:	00000000 	nop
    5d00:	8fc20030 	lw	v0,48(s8)
    5d04:	00000000 	nop
    5d08:	8c4202e0 	lw	v0,736(v0)
    5d0c:	8fc40030 	lw	a0,48(s8)
    5d10:	00402821 	move	a1,v0
    5d14:	0c001690 	jal	5a40 <cleanup_glue>
    5d18:	00000000 	nop
    5d1c:	03c0e821 	move	sp,s8
    5d20:	8fbf002c 	lw	ra,44(sp)
    5d24:	8fbe0028 	lw	s8,40(sp)
    5d28:	27bd0030 	addiu	sp,sp,48
    5d2c:	03e00008 	jr	ra
    5d30:	00000000 	nop

00005d34 <_wrapup_reent>:
    5d34:	27bdffe0 	addiu	sp,sp,-32
    5d38:	afbf001c 	sw	ra,28(sp)
    5d3c:	afbe0018 	sw	s8,24(sp)
    5d40:	afb10014 	sw	s1,20(sp)
    5d44:	afb00010 	sw	s0,16(sp)
    5d48:	03a0f021 	move	s8,sp
    5d4c:	afc40020 	sw	a0,32(s8)
    5d50:	8fc20020 	lw	v0,32(s8)
    5d54:	00000000 	nop
    5d58:	14400004 	bnez	v0,5d6c <_wrapup_reent+0x38>
    5d5c:	00000000 	nop
    5d60:	8f828010 	lw	v0,-32752(gp)
    5d64:	00000000 	nop
    5d68:	afc20020 	sw	v0,32(s8)
    5d6c:	8fc20020 	lw	v0,32(s8)
    5d70:	00000000 	nop
    5d74:	8c500148 	lw	s0,328(v0)
    5d78:	0800176f 	j	5dbc <_wrapup_reent+0x88>
    5d7c:	00000000 	nop
    5d80:	8e110004 	lw	s1,4(s0)
    5d84:	0800176a 	j	5da8 <_wrapup_reent+0x74>
    5d88:	00000000 	nop
    5d8c:	26220002 	addiu	v0,s1,2
    5d90:	00021080 	sll	v0,v0,0x2
    5d94:	02021021 	addu	v0,s0,v0
    5d98:	8c420000 	lw	v0,0(v0)
    5d9c:	00000000 	nop
    5da0:	0040f809 	jalr	v0
    5da4:	00000000 	nop
    5da8:	2631ffff 	addiu	s1,s1,-1
    5dac:	0621fff7 	bgez	s1,5d8c <_wrapup_reent+0x58>
    5db0:	00000000 	nop
    5db4:	8e100000 	lw	s0,0(s0)
    5db8:	00000000 	nop
    5dbc:	1600fff0 	bnez	s0,5d80 <_wrapup_reent+0x4c>
    5dc0:	00000000 	nop
    5dc4:	8fc20020 	lw	v0,32(s8)
    5dc8:	00000000 	nop
    5dcc:	8c42003c 	lw	v0,60(v0)
    5dd0:	00000000 	nop
    5dd4:	10400007 	beqz	v0,5df4 <_wrapup_reent+0xc0>
    5dd8:	00000000 	nop
    5ddc:	8fc20020 	lw	v0,32(s8)
    5de0:	00000000 	nop
    5de4:	8c42003c 	lw	v0,60(v0)
    5de8:	8fc40020 	lw	a0,32(s8)
    5dec:	0040f809 	jalr	v0
    5df0:	00000000 	nop
    5df4:	03c0e821 	move	sp,s8
    5df8:	8fbf001c 	lw	ra,28(sp)
    5dfc:	8fbe0018 	lw	s8,24(sp)
    5e00:	8fb10014 	lw	s1,20(sp)
    5e04:	8fb00010 	lw	s0,16(sp)
    5e08:	27bd0020 	addiu	sp,sp,32
    5e0c:	03e00008 	jr	ra
    5e10:	00000000 	nop

00005e14 <__sread>:
    5e14:	27bdffe0 	addiu	sp,sp,-32
    5e18:	afbf001c 	sw	ra,28(sp)
    5e1c:	afbe0018 	sw	s8,24(sp)
    5e20:	afb10014 	sw	s1,20(sp)
    5e24:	afb00010 	sw	s0,16(sp)
    5e28:	03a0f021 	move	s8,sp
    5e2c:	afc40020 	sw	a0,32(s8)
    5e30:	afc50024 	sw	a1,36(s8)
    5e34:	afc60028 	sw	a2,40(s8)
    5e38:	afc7002c 	sw	a3,44(s8)
    5e3c:	8fd00024 	lw	s0,36(s8)
    5e40:	00000000 	nop
    5e44:	8602000e 	lh	v0,14(s0)
    5e48:	00000000 	nop
    5e4c:	00401821 	move	v1,v0
    5e50:	8fc2002c 	lw	v0,44(s8)
    5e54:	8fc40020 	lw	a0,32(s8)
    5e58:	00602821 	move	a1,v1
    5e5c:	8fc60028 	lw	a2,40(s8)
    5e60:	00403821 	move	a3,v0
    5e64:	0c00194a 	jal	6528 <_read_r>
    5e68:	00000000 	nop
    5e6c:	00408821 	move	s1,v0
    5e70:	06200007 	bltz	s1,5e90 <__sread+0x7c>
    5e74:	00000000 	nop
    5e78:	8e020050 	lw	v0,80(s0)
    5e7c:	00000000 	nop
    5e80:	00511021 	addu	v0,v0,s1
    5e84:	ae020050 	sw	v0,80(s0)
    5e88:	080017aa 	j	5ea8 <__sread+0x94>
    5e8c:	00000000 	nop
    5e90:	8603000c 	lh	v1,12(s0)
    5e94:	2402efff 	li	v0,-4097
    5e98:	00621024 	and	v0,v1,v0
    5e9c:	00021400 	sll	v0,v0,0x10
    5ea0:	00021403 	sra	v0,v0,0x10
    5ea4:	a602000c 	sh	v0,12(s0)
    5ea8:	02201021 	move	v0,s1
    5eac:	03c0e821 	move	sp,s8
    5eb0:	8fbf001c 	lw	ra,28(sp)
    5eb4:	8fbe0018 	lw	s8,24(sp)
    5eb8:	8fb10014 	lw	s1,20(sp)
    5ebc:	8fb00010 	lw	s0,16(sp)
    5ec0:	27bd0020 	addiu	sp,sp,32
    5ec4:	03e00008 	jr	ra
    5ec8:	00000000 	nop

00005ecc <__seofread>:
    5ecc:	27bdfff8 	addiu	sp,sp,-8
    5ed0:	afbe0004 	sw	s8,4(sp)
    5ed4:	03a0f021 	move	s8,sp
    5ed8:	afc40008 	sw	a0,8(s8)
    5edc:	afc5000c 	sw	a1,12(s8)
    5ee0:	afc60010 	sw	a2,16(s8)
    5ee4:	afc70014 	sw	a3,20(s8)
    5ee8:	00001021 	move	v0,zero
    5eec:	03c0e821 	move	sp,s8
    5ef0:	8fbe0004 	lw	s8,4(sp)
    5ef4:	27bd0008 	addiu	sp,sp,8
    5ef8:	03e00008 	jr	ra
    5efc:	00000000 	nop

00005f00 <__swrite>:
    5f00:	27bdffd8 	addiu	sp,sp,-40
    5f04:	afbf0024 	sw	ra,36(sp)
    5f08:	afbe0020 	sw	s8,32(sp)
    5f0c:	afb0001c 	sw	s0,28(sp)
    5f10:	03a0f021 	move	s8,sp
    5f14:	afc40028 	sw	a0,40(s8)
    5f18:	afc5002c 	sw	a1,44(s8)
    5f1c:	afc60030 	sw	a2,48(s8)
    5f20:	afc70034 	sw	a3,52(s8)
    5f24:	8fd0002c 	lw	s0,44(s8)
    5f28:	00000000 	nop
    5f2c:	8602000c 	lh	v0,12(s0)
    5f30:	00000000 	nop
    5f34:	3042ffff 	andi	v0,v0,0xffff
    5f38:	30420100 	andi	v0,v0,0x100
    5f3c:	10400008 	beqz	v0,5f60 <__swrite+0x60>
    5f40:	00000000 	nop
    5f44:	8602000e 	lh	v0,14(s0)
    5f48:	8fc40028 	lw	a0,40(s8)
    5f4c:	00402821 	move	a1,v0
    5f50:	00003021 	move	a2,zero
    5f54:	24070002 	li	a3,2
    5f58:	0c001928 	jal	64a0 <_lseek_r>
    5f5c:	00000000 	nop
    5f60:	8603000c 	lh	v1,12(s0)
    5f64:	2402efff 	li	v0,-4097
    5f68:	00621024 	and	v0,v1,v0
    5f6c:	00021400 	sll	v0,v0,0x10
    5f70:	00021403 	sra	v0,v0,0x10
    5f74:	a602000c 	sh	v0,12(s0)
    5f78:	8602000e 	lh	v0,14(s0)
    5f7c:	00000000 	nop
    5f80:	00401821 	move	v1,v0
    5f84:	8fc20034 	lw	v0,52(s8)
    5f88:	8fc40028 	lw	a0,40(s8)
    5f8c:	00602821 	move	a1,v1
    5f90:	8fc60030 	lw	a2,48(s8)
    5f94:	00403821 	move	a3,v0
    5f98:	0c001836 	jal	60d8 <_write_r>
    5f9c:	00000000 	nop
    5fa0:	afc20010 	sw	v0,16(s8)
    5fa4:	8fc20010 	lw	v0,16(s8)
    5fa8:	03c0e821 	move	sp,s8
    5fac:	8fbf0024 	lw	ra,36(sp)
    5fb0:	8fbe0020 	lw	s8,32(sp)
    5fb4:	8fb0001c 	lw	s0,28(sp)
    5fb8:	27bd0028 	addiu	sp,sp,40
    5fbc:	03e00008 	jr	ra
    5fc0:	00000000 	nop

00005fc4 <__sseek>:
    5fc4:	27bdffe0 	addiu	sp,sp,-32
    5fc8:	afbf001c 	sw	ra,28(sp)
    5fcc:	afbe0018 	sw	s8,24(sp)
    5fd0:	afb10014 	sw	s1,20(sp)
    5fd4:	afb00010 	sw	s0,16(sp)
    5fd8:	03a0f021 	move	s8,sp
    5fdc:	afc40020 	sw	a0,32(s8)
    5fe0:	afc50024 	sw	a1,36(s8)
    5fe4:	afc60028 	sw	a2,40(s8)
    5fe8:	afc7002c 	sw	a3,44(s8)
    5fec:	8fd00024 	lw	s0,36(s8)
    5ff0:	00000000 	nop
    5ff4:	8602000e 	lh	v0,14(s0)
    5ff8:	8fc40020 	lw	a0,32(s8)
    5ffc:	00402821 	move	a1,v0
    6000:	8fc60028 	lw	a2,40(s8)
    6004:	8fc7002c 	lw	a3,44(s8)
    6008:	0c001928 	jal	64a0 <_lseek_r>
    600c:	00000000 	nop
    6010:	00408821 	move	s1,v0
    6014:	2402ffff 	li	v0,-1
    6018:	16220009 	bne	s1,v0,6040 <__sseek+0x7c>
    601c:	00000000 	nop
    6020:	8603000c 	lh	v1,12(s0)
    6024:	2402efff 	li	v0,-4097
    6028:	00621024 	and	v0,v1,v0
    602c:	00021400 	sll	v0,v0,0x10
    6030:	00021403 	sra	v0,v0,0x10
    6034:	a602000c 	sh	v0,12(s0)
    6038:	08001817 	j	605c <__sseek+0x98>
    603c:	00000000 	nop
    6040:	8602000c 	lh	v0,12(s0)
    6044:	00000000 	nop
    6048:	34421000 	ori	v0,v0,0x1000
    604c:	00021400 	sll	v0,v0,0x10
    6050:	00021403 	sra	v0,v0,0x10
    6054:	a602000c 	sh	v0,12(s0)
    6058:	ae110050 	sw	s1,80(s0)
    605c:	02201021 	move	v0,s1
    6060:	03c0e821 	move	sp,s8
    6064:	8fbf001c 	lw	ra,28(sp)
    6068:	8fbe0018 	lw	s8,24(sp)
    606c:	8fb10014 	lw	s1,20(sp)
    6070:	8fb00010 	lw	s0,16(sp)
    6074:	27bd0020 	addiu	sp,sp,32
    6078:	03e00008 	jr	ra
    607c:	00000000 	nop

00006080 <__sclose>:
    6080:	27bdffe0 	addiu	sp,sp,-32
    6084:	afbf001c 	sw	ra,28(sp)
    6088:	afbe0018 	sw	s8,24(sp)
    608c:	03a0f021 	move	s8,sp
    6090:	afc40020 	sw	a0,32(s8)
    6094:	afc50024 	sw	a1,36(s8)
    6098:	8fc20024 	lw	v0,36(s8)
    609c:	00000000 	nop
    60a0:	afc20010 	sw	v0,16(s8)
    60a4:	8fc20010 	lw	v0,16(s8)
    60a8:	00000000 	nop
    60ac:	8442000e 	lh	v0,14(v0)
    60b0:	8fc40020 	lw	a0,32(s8)
    60b4:	00402821 	move	a1,v0
    60b8:	0c001858 	jal	6160 <_close_r>
    60bc:	00000000 	nop
    60c0:	03c0e821 	move	sp,s8
    60c4:	8fbf001c 	lw	ra,28(sp)
    60c8:	8fbe0018 	lw	s8,24(sp)
    60cc:	27bd0020 	addiu	sp,sp,32
    60d0:	03e00008 	jr	ra
    60d4:	00000000 	nop

000060d8 <_write_r>:
    60d8:	27bdffe0 	addiu	sp,sp,-32
    60dc:	afbf001c 	sw	ra,28(sp)
    60e0:	afbe0018 	sw	s8,24(sp)
    60e4:	03a0f021 	move	s8,sp
    60e8:	afc40020 	sw	a0,32(s8)
    60ec:	afc50024 	sw	a1,36(s8)
    60f0:	afc60028 	sw	a2,40(s8)
    60f4:	afc7002c 	sw	a3,44(s8)
    60f8:	af808038 	sw	zero,-32712(gp)
    60fc:	8fc40024 	lw	a0,36(s8)
    6100:	8fc50028 	lw	a1,40(s8)
    6104:	8fc6002c 	lw	a2,44(s8)
    6108:	0c00197b 	jal	65ec <write>
    610c:	00000000 	nop
    6110:	afc20010 	sw	v0,16(s8)
    6114:	8fc30010 	lw	v1,16(s8)
    6118:	2402ffff 	li	v0,-1
    611c:	14620009 	bne	v1,v0,6144 <_write_r+0x6c>
    6120:	00000000 	nop
    6124:	8f828038 	lw	v0,-32712(gp)
    6128:	00000000 	nop
    612c:	10400005 	beqz	v0,6144 <_write_r+0x6c>
    6130:	00000000 	nop
    6134:	8f838038 	lw	v1,-32712(gp)
    6138:	8fc20020 	lw	v0,32(s8)
    613c:	00000000 	nop
    6140:	ac430000 	sw	v1,0(v0)
    6144:	8fc20010 	lw	v0,16(s8)
    6148:	03c0e821 	move	sp,s8
    614c:	8fbf001c 	lw	ra,28(sp)
    6150:	8fbe0018 	lw	s8,24(sp)
    6154:	27bd0020 	addiu	sp,sp,32
    6158:	03e00008 	jr	ra
    615c:	00000000 	nop

00006160 <_close_r>:
    6160:	27bdffe0 	addiu	sp,sp,-32
    6164:	afbf001c 	sw	ra,28(sp)
    6168:	afbe0018 	sw	s8,24(sp)
    616c:	03a0f021 	move	s8,sp
    6170:	afc40020 	sw	a0,32(s8)
    6174:	afc50024 	sw	a1,36(s8)
    6178:	af808038 	sw	zero,-32712(gp)
    617c:	8fc40024 	lw	a0,36(s8)
    6180:	0c001975 	jal	65d4 <close>
    6184:	00000000 	nop
    6188:	afc20010 	sw	v0,16(s8)
    618c:	8fc30010 	lw	v1,16(s8)
    6190:	2402ffff 	li	v0,-1
    6194:	14620009 	bne	v1,v0,61bc <_close_r+0x5c>
    6198:	00000000 	nop
    619c:	8f828038 	lw	v0,-32712(gp)
    61a0:	00000000 	nop
    61a4:	10400005 	beqz	v0,61bc <_close_r+0x5c>
    61a8:	00000000 	nop
    61ac:	8f838038 	lw	v1,-32712(gp)
    61b0:	8fc20020 	lw	v0,32(s8)
    61b4:	00000000 	nop
    61b8:	ac430000 	sw	v1,0(v0)
    61bc:	8fc20010 	lw	v0,16(s8)
    61c0:	03c0e821 	move	sp,s8
    61c4:	8fbf001c 	lw	ra,28(sp)
    61c8:	8fbe0018 	lw	s8,24(sp)
    61cc:	27bd0020 	addiu	sp,sp,32
    61d0:	03e00008 	jr	ra
    61d4:	00000000 	nop

000061d8 <_fclose_r>:
    61d8:	27bdffd8 	addiu	sp,sp,-40
    61dc:	afbf0024 	sw	ra,36(sp)
    61e0:	afbe0020 	sw	s8,32(sp)
    61e4:	afb0001c 	sw	s0,28(sp)
    61e8:	03a0f021 	move	s8,sp
    61ec:	afc40028 	sw	a0,40(s8)
    61f0:	00a08021 	move	s0,a1
    61f4:	16000004 	bnez	s0,6208 <_fclose_r+0x30>
    61f8:	00000000 	nop
    61fc:	00001021 	move	v0,zero
    6200:	080018d2 	j	6348 <_fclose_r+0x170>
    6204:	00000000 	nop
    6208:	8fc20028 	lw	v0,40(s8)
    620c:	00000000 	nop
    6210:	1040000a 	beqz	v0,623c <_fclose_r+0x64>
    6214:	00000000 	nop
    6218:	8fc20028 	lw	v0,40(s8)
    621c:	00000000 	nop
    6220:	8c420038 	lw	v0,56(v0)
    6224:	00000000 	nop
    6228:	14400004 	bnez	v0,623c <_fclose_r+0x64>
    622c:	00000000 	nop
    6230:	8fc40028 	lw	a0,40(s8)
    6234:	0c0011c9 	jal	4724 <__sinit>
    6238:	00000000 	nop
    623c:	8602000c 	lh	v0,12(s0)
    6240:	00000000 	nop
    6244:	14400004 	bnez	v0,6258 <_fclose_r+0x80>
    6248:	00000000 	nop
    624c:	00001021 	move	v0,zero
    6250:	080018d2 	j	6348 <_fclose_r+0x170>
    6254:	00000000 	nop
    6258:	8fc40028 	lw	a0,40(s8)
    625c:	02002821 	move	a1,s0
    6260:	0c001047 	jal	411c <_fflush_r>
    6264:	00000000 	nop
    6268:	afc20010 	sw	v0,16(s8)
    626c:	8e02002c 	lw	v0,44(s0)
    6270:	00000000 	nop
    6274:	1040000b 	beqz	v0,62a4 <_fclose_r+0xcc>
    6278:	00000000 	nop
    627c:	8e02002c 	lw	v0,44(s0)
    6280:	8e03001c 	lw	v1,28(s0)
    6284:	8fc40028 	lw	a0,40(s8)
    6288:	00602821 	move	a1,v1
    628c:	0040f809 	jalr	v0
    6290:	00000000 	nop
    6294:	04410003 	bgez	v0,62a4 <_fclose_r+0xcc>
    6298:	00000000 	nop
    629c:	2402ffff 	li	v0,-1
    62a0:	afc20010 	sw	v0,16(s8)
    62a4:	8602000c 	lh	v0,12(s0)
    62a8:	00000000 	nop
    62ac:	3042ffff 	andi	v0,v0,0xffff
    62b0:	30420080 	andi	v0,v0,0x80
    62b4:	10400006 	beqz	v0,62d0 <_fclose_r+0xf8>
    62b8:	00000000 	nop
    62bc:	8e020010 	lw	v0,16(s0)
    62c0:	8fc40028 	lw	a0,40(s8)
    62c4:	00402821 	move	a1,v0
    62c8:	0c00126d 	jal	49b4 <_free_r>
    62cc:	00000000 	nop
    62d0:	8e020030 	lw	v0,48(s0)
    62d4:	00000000 	nop
    62d8:	1040000b 	beqz	v0,6308 <_fclose_r+0x130>
    62dc:	00000000 	nop
    62e0:	8e030030 	lw	v1,48(s0)
    62e4:	26020040 	addiu	v0,s0,64
    62e8:	10620006 	beq	v1,v0,6304 <_fclose_r+0x12c>
    62ec:	00000000 	nop
    62f0:	8e020030 	lw	v0,48(s0)
    62f4:	8fc40028 	lw	a0,40(s8)
    62f8:	00402821 	move	a1,v0
    62fc:	0c00126d 	jal	49b4 <_free_r>
    6300:	00000000 	nop
    6304:	ae000030 	sw	zero,48(s0)
    6308:	8e020044 	lw	v0,68(s0)
    630c:	00000000 	nop
    6310:	10400007 	beqz	v0,6330 <_fclose_r+0x158>
    6314:	00000000 	nop
    6318:	8e020044 	lw	v0,68(s0)
    631c:	8fc40028 	lw	a0,40(s8)
    6320:	00402821 	move	a1,v0
    6324:	0c00126d 	jal	49b4 <_free_r>
    6328:	00000000 	nop
    632c:	ae000044 	sw	zero,68(s0)
    6330:	0c001213 	jal	484c <__sfp_lock_acquire>
    6334:	00000000 	nop
    6338:	a600000c 	sh	zero,12(s0)
    633c:	0c00121b 	jal	486c <__sfp_lock_release>
    6340:	00000000 	nop
    6344:	8fc20010 	lw	v0,16(s8)
    6348:	03c0e821 	move	sp,s8
    634c:	8fbf0024 	lw	ra,36(sp)
    6350:	8fbe0020 	lw	s8,32(sp)
    6354:	8fb0001c 	lw	s0,28(sp)
    6358:	27bd0028 	addiu	sp,sp,40
    635c:	03e00008 	jr	ra
    6360:	00000000 	nop

00006364 <fclose>:
    6364:	27bdffe8 	addiu	sp,sp,-24
    6368:	afbf0014 	sw	ra,20(sp)
    636c:	afbe0010 	sw	s8,16(sp)
    6370:	03a0f021 	move	s8,sp
    6374:	00801021 	move	v0,a0
    6378:	8f838010 	lw	v1,-32752(gp)
    637c:	00000000 	nop
    6380:	00602021 	move	a0,v1
    6384:	00402821 	move	a1,v0
    6388:	0c001876 	jal	61d8 <_fclose_r>
    638c:	00000000 	nop
    6390:	03c0e821 	move	sp,s8
    6394:	8fbf0014 	lw	ra,20(sp)
    6398:	8fbe0010 	lw	s8,16(sp)
    639c:	27bd0018 	addiu	sp,sp,24
    63a0:	03e00008 	jr	ra
    63a4:	00000000 	nop

000063a8 <_fstat_r>:
    63a8:	27bdffe0 	addiu	sp,sp,-32
    63ac:	afbf001c 	sw	ra,28(sp)
    63b0:	afbe0018 	sw	s8,24(sp)
    63b4:	03a0f021 	move	s8,sp
    63b8:	afc40020 	sw	a0,32(s8)
    63bc:	afc50024 	sw	a1,36(s8)
    63c0:	afc60028 	sw	a2,40(s8)
    63c4:	af808038 	sw	zero,-32712(gp)
    63c8:	8fc40024 	lw	a0,36(s8)
    63cc:	8fc50028 	lw	a1,40(s8)
    63d0:	0c001ae0 	jal	6b80 <fstat>
    63d4:	00000000 	nop
    63d8:	afc20010 	sw	v0,16(s8)
    63dc:	8fc30010 	lw	v1,16(s8)
    63e0:	2402ffff 	li	v0,-1
    63e4:	14620009 	bne	v1,v0,640c <_fstat_r+0x64>
    63e8:	00000000 	nop
    63ec:	8f828038 	lw	v0,-32712(gp)
    63f0:	00000000 	nop
    63f4:	10400005 	beqz	v0,640c <_fstat_r+0x64>
    63f8:	00000000 	nop
    63fc:	8f838038 	lw	v1,-32712(gp)
    6400:	8fc20020 	lw	v0,32(s8)
    6404:	00000000 	nop
    6408:	ac430000 	sw	v1,0(v0)
    640c:	8fc20010 	lw	v0,16(s8)
    6410:	03c0e821 	move	sp,s8
    6414:	8fbf001c 	lw	ra,28(sp)
    6418:	8fbe0018 	lw	s8,24(sp)
    641c:	27bd0020 	addiu	sp,sp,32
    6420:	03e00008 	jr	ra
    6424:	00000000 	nop

00006428 <_isatty_r>:
    6428:	27bdffe0 	addiu	sp,sp,-32
    642c:	afbf001c 	sw	ra,28(sp)
    6430:	afbe0018 	sw	s8,24(sp)
    6434:	03a0f021 	move	s8,sp
    6438:	afc40020 	sw	a0,32(s8)
    643c:	afc50024 	sw	a1,36(s8)
    6440:	af808038 	sw	zero,-32712(gp)
    6444:	8fc40024 	lw	a0,36(s8)
    6448:	0c00197e 	jal	65f8 <isatty>
    644c:	00000000 	nop
    6450:	afc20010 	sw	v0,16(s8)
    6454:	8fc30010 	lw	v1,16(s8)
    6458:	2402ffff 	li	v0,-1
    645c:	14620009 	bne	v1,v0,6484 <_isatty_r+0x5c>
    6460:	00000000 	nop
    6464:	8f828038 	lw	v0,-32712(gp)
    6468:	00000000 	nop
    646c:	10400005 	beqz	v0,6484 <_isatty_r+0x5c>
    6470:	00000000 	nop
    6474:	8f838038 	lw	v1,-32712(gp)
    6478:	8fc20020 	lw	v0,32(s8)
    647c:	00000000 	nop
    6480:	ac430000 	sw	v1,0(v0)
    6484:	8fc20010 	lw	v0,16(s8)
    6488:	03c0e821 	move	sp,s8
    648c:	8fbf001c 	lw	ra,28(sp)
    6490:	8fbe0018 	lw	s8,24(sp)
    6494:	27bd0020 	addiu	sp,sp,32
    6498:	03e00008 	jr	ra
    649c:	00000000 	nop

000064a0 <_lseek_r>:
    64a0:	27bdffe0 	addiu	sp,sp,-32
    64a4:	afbf001c 	sw	ra,28(sp)
    64a8:	afbe0018 	sw	s8,24(sp)
    64ac:	03a0f021 	move	s8,sp
    64b0:	afc40020 	sw	a0,32(s8)
    64b4:	afc50024 	sw	a1,36(s8)
    64b8:	afc60028 	sw	a2,40(s8)
    64bc:	afc7002c 	sw	a3,44(s8)
    64c0:	af808038 	sw	zero,-32712(gp)
    64c4:	8fc40024 	lw	a0,36(s8)
    64c8:	8fc50028 	lw	a1,40(s8)
    64cc:	8fc6002c 	lw	a2,44(s8)
    64d0:	0c001984 	jal	6610 <lseek>
    64d4:	00000000 	nop
    64d8:	afc20010 	sw	v0,16(s8)
    64dc:	8fc30010 	lw	v1,16(s8)
    64e0:	2402ffff 	li	v0,-1
    64e4:	14620009 	bne	v1,v0,650c <_lseek_r+0x6c>
    64e8:	00000000 	nop
    64ec:	8f828038 	lw	v0,-32712(gp)
    64f0:	00000000 	nop
    64f4:	10400005 	beqz	v0,650c <_lseek_r+0x6c>
    64f8:	00000000 	nop
    64fc:	8f838038 	lw	v1,-32712(gp)
    6500:	8fc20020 	lw	v0,32(s8)
    6504:	00000000 	nop
    6508:	ac430000 	sw	v1,0(v0)
    650c:	8fc20010 	lw	v0,16(s8)
    6510:	03c0e821 	move	sp,s8
    6514:	8fbf001c 	lw	ra,28(sp)
    6518:	8fbe0018 	lw	s8,24(sp)
    651c:	27bd0020 	addiu	sp,sp,32
    6520:	03e00008 	jr	ra
    6524:	00000000 	nop

00006528 <_read_r>:
    6528:	27bdffe0 	addiu	sp,sp,-32
    652c:	afbf001c 	sw	ra,28(sp)
    6530:	afbe0018 	sw	s8,24(sp)
    6534:	03a0f021 	move	s8,sp
    6538:	afc40020 	sw	a0,32(s8)
    653c:	afc50024 	sw	a1,36(s8)
    6540:	afc60028 	sw	a2,40(s8)
    6544:	afc7002c 	sw	a3,44(s8)
    6548:	af808038 	sw	zero,-32712(gp)
    654c:	8fc40024 	lw	a0,36(s8)
    6550:	8fc50028 	lw	a1,40(s8)
    6554:	8fc6002c 	lw	a2,44(s8)
    6558:	0c001978 	jal	65e0 <read>
    655c:	00000000 	nop
    6560:	afc20010 	sw	v0,16(s8)
    6564:	8fc30010 	lw	v1,16(s8)
    6568:	2402ffff 	li	v0,-1
    656c:	14620009 	bne	v1,v0,6594 <_read_r+0x6c>
    6570:	00000000 	nop
    6574:	8f828038 	lw	v0,-32712(gp)
    6578:	00000000 	nop
    657c:	10400005 	beqz	v0,6594 <_read_r+0x6c>
    6580:	00000000 	nop
    6584:	8f838038 	lw	v1,-32712(gp)
    6588:	8fc20020 	lw	v0,32(s8)
    658c:	00000000 	nop
    6590:	ac430000 	sw	v1,0(v0)
    6594:	8fc20010 	lw	v0,16(s8)
    6598:	03c0e821 	move	sp,s8
    659c:	8fbf001c 	lw	ra,28(sp)
    65a0:	8fbe0018 	lw	s8,24(sp)
    65a4:	27bd0020 	addiu	sp,sp,32
    65a8:	03e00008 	jr	ra
    65ac:	00000000 	nop

000065b0 <ac_forbidden>:
    65b0:	2402003c 	li	v0,60
    65b4:	00400008 	jr	v0
    65b8:	00000000 	nop

000065bc <open>:
    65bc:	24020040 	li	v0,64
    65c0:	00400008 	jr	v0
    65c4:	00000000 	nop

000065c8 <creat>:
    65c8:	24020044 	li	v0,68
    65cc:	00400008 	jr	v0
    65d0:	00000000 	nop

000065d4 <close>:
    65d4:	24020048 	li	v0,72
    65d8:	00400008 	jr	v0
    65dc:	00000000 	nop

000065e0 <read>:
    65e0:	2402004c 	li	v0,76
    65e4:	00400008 	jr	v0
    65e8:	00000000 	nop

000065ec <write>:
    65ec:	24020050 	li	v0,80
    65f0:	00400008 	jr	v0
    65f4:	00000000 	nop

000065f8 <isatty>:
    65f8:	24020054 	li	v0,84
    65fc:	00400008 	jr	v0
    6600:	00000000 	nop

00006604 <sbrk>:
    6604:	24020058 	li	v0,88
    6608:	00400008 	jr	v0
    660c:	00000000 	nop

00006610 <lseek>:
    6610:	2402005c 	li	v0,92
    6614:	00400008 	jr	v0
    6618:	00000000 	nop

0000661c <_exit>:
    661c:	24020064 	li	v0,100
    6620:	00400008 	jr	v0
    6624:	00000000 	nop

00006628 <times>:
    6628:	24020068 	li	v0,104
    662c:	00400008 	jr	v0
    6630:	00000000 	nop

00006634 <time>:
    6634:	2402006c 	li	v0,108
    6638:	00400008 	jr	v0
    663c:	00000000 	nop

00006640 <random>:
    6640:	24020070 	li	v0,112
    6644:	00400008 	jr	v0
    6648:	00000000 	nop

0000664c <ac_syscall_wrapper>:
    664c:	24020074 	li	v0,116
    6650:	00400008 	jr	v0
    6654:	00000000 	nop

00006658 <ac_syscall_geterrno>:
    6658:	24020078 	li	v0,120
    665c:	00400008 	jr	v0
    6660:	00000000 	nop

00006664 <ac_syscall_stat_mode>:
    6664:	2402007c 	li	v0,124
    6668:	00400008 	jr	v0
    666c:	00000000 	nop

00006670 <ac_rtld_init>:
    6670:	24020080 	li	v0,128
    6674:	00400008 	jr	v0
    6678:	00000000 	nop

0000667c <ac_rtld_fini>:
    667c:	24020084 	li	v0,132
    6680:	00400008 	jr	v0
    6684:	00000000 	nop

00006688 <ac_rtld_dummy>:
    6688:	24020088 	li	v0,136
    668c:	00400008 	jr	v0
    6690:	00000000 	nop

00006694 <link>:
    6694:	00801021 	move	v0,a0
    6698:	27bdffe0 	addiu	sp,sp,-32
    669c:	00a03021 	move	a2,a1
    66a0:	24040009 	li	a0,9
    66a4:	00402821 	move	a1,v0
    66a8:	afb00014 	sw	s0,20(sp)
    66ac:	afbf001c 	sw	ra,28(sp)
    66b0:	0c001993 	jal	664c <ac_syscall_wrapper>
    66b4:	afb10018 	sw	s1,24(sp)
    66b8:	00408021 	move	s0,v0
    66bc:	2402ffff 	li	v0,-1
    66c0:	12020006 	beq	s0,v0,66dc <link+0x48>
    66c4:	02001021 	move	v0,s0
    66c8:	8fbf001c 	lw	ra,28(sp)
    66cc:	8fb10018 	lw	s1,24(sp)
    66d0:	8fb00014 	lw	s0,20(sp)
    66d4:	03e00008 	jr	ra
    66d8:	27bd0020 	addiu	sp,sp,32
    66dc:	0c001b2f 	jal	6cbc <__errno>
    66e0:	00000000 	nop
    66e4:	0c001996 	jal	6658 <ac_syscall_geterrno>
    66e8:	00408821 	move	s1,v0
    66ec:	8fbf001c 	lw	ra,28(sp)
    66f0:	ae220000 	sw	v0,0(s1)
    66f4:	02001021 	move	v0,s0
    66f8:	8fb10018 	lw	s1,24(sp)
    66fc:	8fb00014 	lw	s0,20(sp)
    6700:	03e00008 	jr	ra
    6704:	27bd0020 	addiu	sp,sp,32

00006708 <unlink>:
    6708:	27bdffe0 	addiu	sp,sp,-32
    670c:	00802821 	move	a1,a0
    6710:	2404000a 	li	a0,10
    6714:	afb00014 	sw	s0,20(sp)
    6718:	afbf001c 	sw	ra,28(sp)
    671c:	0c001993 	jal	664c <ac_syscall_wrapper>
    6720:	afb10018 	sw	s1,24(sp)
    6724:	00408021 	move	s0,v0
    6728:	2402ffff 	li	v0,-1
    672c:	12020006 	beq	s0,v0,6748 <unlink+0x40>
    6730:	02001021 	move	v0,s0
    6734:	8fbf001c 	lw	ra,28(sp)
    6738:	8fb10018 	lw	s1,24(sp)
    673c:	8fb00014 	lw	s0,20(sp)
    6740:	03e00008 	jr	ra
    6744:	27bd0020 	addiu	sp,sp,32
    6748:	0c001b2f 	jal	6cbc <__errno>
    674c:	00000000 	nop
    6750:	0c001996 	jal	6658 <ac_syscall_geterrno>
    6754:	00408821 	move	s1,v0
    6758:	8fbf001c 	lw	ra,28(sp)
    675c:	ae220000 	sw	v0,0(s1)
    6760:	02001021 	move	v0,s0
    6764:	8fb10018 	lw	s1,24(sp)
    6768:	8fb00014 	lw	s0,20(sp)
    676c:	03e00008 	jr	ra
    6770:	27bd0020 	addiu	sp,sp,32

00006774 <chmod>:
    6774:	00801021 	move	v0,a0
    6778:	27bdffe0 	addiu	sp,sp,-32
    677c:	00a03021 	move	a2,a1
    6780:	2404000f 	li	a0,15
    6784:	00402821 	move	a1,v0
    6788:	afb00014 	sw	s0,20(sp)
    678c:	afbf001c 	sw	ra,28(sp)
    6790:	0c001993 	jal	664c <ac_syscall_wrapper>
    6794:	afb10018 	sw	s1,24(sp)
    6798:	00408021 	move	s0,v0
    679c:	2402ffff 	li	v0,-1
    67a0:	12020006 	beq	s0,v0,67bc <chmod+0x48>
    67a4:	02001021 	move	v0,s0
    67a8:	8fbf001c 	lw	ra,28(sp)
    67ac:	8fb10018 	lw	s1,24(sp)
    67b0:	8fb00014 	lw	s0,20(sp)
    67b4:	03e00008 	jr	ra
    67b8:	27bd0020 	addiu	sp,sp,32
    67bc:	0c001b2f 	jal	6cbc <__errno>
    67c0:	00000000 	nop
    67c4:	0c001996 	jal	6658 <ac_syscall_geterrno>
    67c8:	00408821 	move	s1,v0
    67cc:	8fbf001c 	lw	ra,28(sp)
    67d0:	ae220000 	sw	v0,0(s1)
    67d4:	02001021 	move	v0,s0
    67d8:	8fb10018 	lw	s1,24(sp)
    67dc:	8fb00014 	lw	s0,20(sp)
    67e0:	03e00008 	jr	ra
    67e4:	27bd0020 	addiu	sp,sp,32

000067e8 <fchmod>:
    67e8:	00801021 	move	v0,a0
    67ec:	27bdffe0 	addiu	sp,sp,-32
    67f0:	00a03021 	move	a2,a1
    67f4:	2404005e 	li	a0,94
    67f8:	00402821 	move	a1,v0
    67fc:	afb00014 	sw	s0,20(sp)
    6800:	afbf001c 	sw	ra,28(sp)
    6804:	0c001993 	jal	664c <ac_syscall_wrapper>
    6808:	afb10018 	sw	s1,24(sp)
    680c:	00408021 	move	s0,v0
    6810:	2402ffff 	li	v0,-1
    6814:	12020006 	beq	s0,v0,6830 <fchmod+0x48>
    6818:	02001021 	move	v0,s0
    681c:	8fbf001c 	lw	ra,28(sp)
    6820:	8fb10018 	lw	s1,24(sp)
    6824:	8fb00014 	lw	s0,20(sp)
    6828:	03e00008 	jr	ra
    682c:	27bd0020 	addiu	sp,sp,32
    6830:	0c001b2f 	jal	6cbc <__errno>
    6834:	00000000 	nop
    6838:	0c001996 	jal	6658 <ac_syscall_geterrno>
    683c:	00408821 	move	s1,v0
    6840:	8fbf001c 	lw	ra,28(sp)
    6844:	ae220000 	sw	v0,0(s1)
    6848:	02001021 	move	v0,s0
    684c:	8fb10018 	lw	s1,24(sp)
    6850:	8fb00014 	lw	s0,20(sp)
    6854:	03e00008 	jr	ra
    6858:	27bd0020 	addiu	sp,sp,32

0000685c <chown>:
    685c:	00801821 	move	v1,a0
    6860:	30a2ffff 	andi	v0,a1,0xffff
    6864:	27bdffe0 	addiu	sp,sp,-32
    6868:	30c7ffff 	andi	a3,a2,0xffff
    686c:	240400b6 	li	a0,182
    6870:	00602821 	move	a1,v1
    6874:	00403021 	move	a2,v0
    6878:	afb00014 	sw	s0,20(sp)
    687c:	afbf001c 	sw	ra,28(sp)
    6880:	0c001993 	jal	664c <ac_syscall_wrapper>
    6884:	afb10018 	sw	s1,24(sp)
    6888:	00408021 	move	s0,v0
    688c:	2402ffff 	li	v0,-1
    6890:	12020006 	beq	s0,v0,68ac <chown+0x50>
    6894:	02001021 	move	v0,s0
    6898:	8fbf001c 	lw	ra,28(sp)
    689c:	8fb10018 	lw	s1,24(sp)
    68a0:	8fb00014 	lw	s0,20(sp)
    68a4:	03e00008 	jr	ra
    68a8:	27bd0020 	addiu	sp,sp,32
    68ac:	0c001b2f 	jal	6cbc <__errno>
    68b0:	00000000 	nop
    68b4:	0c001996 	jal	6658 <ac_syscall_geterrno>
    68b8:	00408821 	move	s1,v0
    68bc:	8fbf001c 	lw	ra,28(sp)
    68c0:	ae220000 	sw	v0,0(s1)
    68c4:	02001021 	move	v0,s0
    68c8:	8fb10018 	lw	s1,24(sp)
    68cc:	8fb00014 	lw	s0,20(sp)
    68d0:	03e00008 	jr	ra
    68d4:	27bd0020 	addiu	sp,sp,32

000068d8 <fchown>:
    68d8:	00801821 	move	v1,a0
    68dc:	30a2ffff 	andi	v0,a1,0xffff
    68e0:	27bdffe0 	addiu	sp,sp,-32
    68e4:	30c7ffff 	andi	a3,a2,0xffff
    68e8:	2404005f 	li	a0,95
    68ec:	00602821 	move	a1,v1
    68f0:	00403021 	move	a2,v0
    68f4:	afb00014 	sw	s0,20(sp)
    68f8:	afbf001c 	sw	ra,28(sp)
    68fc:	0c001993 	jal	664c <ac_syscall_wrapper>
    6900:	afb10018 	sw	s1,24(sp)
    6904:	00408021 	move	s0,v0
    6908:	2402ffff 	li	v0,-1
    690c:	12020006 	beq	s0,v0,6928 <fchown+0x50>
    6910:	02001021 	move	v0,s0
    6914:	8fbf001c 	lw	ra,28(sp)
    6918:	8fb10018 	lw	s1,24(sp)
    691c:	8fb00014 	lw	s0,20(sp)
    6920:	03e00008 	jr	ra
    6924:	27bd0020 	addiu	sp,sp,32
    6928:	0c001b2f 	jal	6cbc <__errno>
    692c:	00000000 	nop
    6930:	0c001996 	jal	6658 <ac_syscall_geterrno>
    6934:	00408821 	move	s1,v0
    6938:	8fbf001c 	lw	ra,28(sp)
    693c:	ae220000 	sw	v0,0(s1)
    6940:	02001021 	move	v0,s0
    6944:	8fb10018 	lw	s1,24(sp)
    6948:	8fb00014 	lw	s0,20(sp)
    694c:	03e00008 	jr	ra
    6950:	27bd0020 	addiu	sp,sp,32

00006954 <lchown>:
    6954:	00801821 	move	v1,a0
    6958:	30a2ffff 	andi	v0,a1,0xffff
    695c:	27bdffe0 	addiu	sp,sp,-32
    6960:	30c7ffff 	andi	a3,a2,0xffff
    6964:	24040010 	li	a0,16
    6968:	00602821 	move	a1,v1
    696c:	00403021 	move	a2,v0
    6970:	afb00014 	sw	s0,20(sp)
    6974:	afbf001c 	sw	ra,28(sp)
    6978:	0c001993 	jal	664c <ac_syscall_wrapper>
    697c:	afb10018 	sw	s1,24(sp)
    6980:	00408021 	move	s0,v0
    6984:	2402ffff 	li	v0,-1
    6988:	12020006 	beq	s0,v0,69a4 <lchown+0x50>
    698c:	02001021 	move	v0,s0
    6990:	8fbf001c 	lw	ra,28(sp)
    6994:	8fb10018 	lw	s1,24(sp)
    6998:	8fb00014 	lw	s0,20(sp)
    699c:	03e00008 	jr	ra
    69a0:	27bd0020 	addiu	sp,sp,32
    69a4:	0c001b2f 	jal	6cbc <__errno>
    69a8:	00000000 	nop
    69ac:	0c001996 	jal	6658 <ac_syscall_geterrno>
    69b0:	00408821 	move	s1,v0
    69b4:	8fbf001c 	lw	ra,28(sp)
    69b8:	ae220000 	sw	v0,0(s1)
    69bc:	02001021 	move	v0,s0
    69c0:	8fb10018 	lw	s1,24(sp)
    69c4:	8fb00014 	lw	s0,20(sp)
    69c8:	03e00008 	jr	ra
    69cc:	27bd0020 	addiu	sp,sp,32

000069d0 <getpid>:
    69d0:	27bdffe0 	addiu	sp,sp,-32
    69d4:	24040014 	li	a0,20
    69d8:	afb00014 	sw	s0,20(sp)
    69dc:	afbf001c 	sw	ra,28(sp)
    69e0:	0c001993 	jal	664c <ac_syscall_wrapper>
    69e4:	afb10018 	sw	s1,24(sp)
    69e8:	00408021 	move	s0,v0
    69ec:	2402ffff 	li	v0,-1
    69f0:	12020006 	beq	s0,v0,6a0c <getpid+0x3c>
    69f4:	02001021 	move	v0,s0
    69f8:	8fbf001c 	lw	ra,28(sp)
    69fc:	8fb10018 	lw	s1,24(sp)
    6a00:	8fb00014 	lw	s0,20(sp)
    6a04:	03e00008 	jr	ra
    6a08:	27bd0020 	addiu	sp,sp,32
    6a0c:	0c001b2f 	jal	6cbc <__errno>
    6a10:	00000000 	nop
    6a14:	0c001996 	jal	6658 <ac_syscall_geterrno>
    6a18:	00408821 	move	s1,v0
    6a1c:	8fbf001c 	lw	ra,28(sp)
    6a20:	ae220000 	sw	v0,0(s1)
    6a24:	02001021 	move	v0,s0
    6a28:	8fb10018 	lw	s1,24(sp)
    6a2c:	8fb00014 	lw	s0,20(sp)
    6a30:	03e00008 	jr	ra
    6a34:	27bd0020 	addiu	sp,sp,32

00006a38 <getppid>:
    6a38:	27bdffe0 	addiu	sp,sp,-32
    6a3c:	24040040 	li	a0,64
    6a40:	afb00014 	sw	s0,20(sp)
    6a44:	afbf001c 	sw	ra,28(sp)
    6a48:	0c001993 	jal	664c <ac_syscall_wrapper>
    6a4c:	afb10018 	sw	s1,24(sp)
    6a50:	00408021 	move	s0,v0
    6a54:	2402ffff 	li	v0,-1
    6a58:	12020006 	beq	s0,v0,6a74 <getppid+0x3c>
    6a5c:	02001021 	move	v0,s0
    6a60:	8fbf001c 	lw	ra,28(sp)
    6a64:	8fb10018 	lw	s1,24(sp)
    6a68:	8fb00014 	lw	s0,20(sp)
    6a6c:	03e00008 	jr	ra
    6a70:	27bd0020 	addiu	sp,sp,32
    6a74:	0c001b2f 	jal	6cbc <__errno>
    6a78:	00000000 	nop
    6a7c:	0c001996 	jal	6658 <ac_syscall_geterrno>
    6a80:	00408821 	move	s1,v0
    6a84:	8fbf001c 	lw	ra,28(sp)
    6a88:	ae220000 	sw	v0,0(s1)
    6a8c:	02001021 	move	v0,s0
    6a90:	8fb10018 	lw	s1,24(sp)
    6a94:	8fb00014 	lw	s0,20(sp)
    6a98:	03e00008 	jr	ra
    6a9c:	27bd0020 	addiu	sp,sp,32

00006aa0 <dup>:
    6aa0:	27bdffe0 	addiu	sp,sp,-32
    6aa4:	00802821 	move	a1,a0
    6aa8:	24040029 	li	a0,41
    6aac:	afb00014 	sw	s0,20(sp)
    6ab0:	afbf001c 	sw	ra,28(sp)
    6ab4:	0c001993 	jal	664c <ac_syscall_wrapper>
    6ab8:	afb10018 	sw	s1,24(sp)
    6abc:	00408021 	move	s0,v0
    6ac0:	2402ffff 	li	v0,-1
    6ac4:	12020006 	beq	s0,v0,6ae0 <dup+0x40>
    6ac8:	02001021 	move	v0,s0
    6acc:	8fbf001c 	lw	ra,28(sp)
    6ad0:	8fb10018 	lw	s1,24(sp)
    6ad4:	8fb00014 	lw	s0,20(sp)
    6ad8:	03e00008 	jr	ra
    6adc:	27bd0020 	addiu	sp,sp,32
    6ae0:	0c001b2f 	jal	6cbc <__errno>
    6ae4:	00000000 	nop
    6ae8:	0c001996 	jal	6658 <ac_syscall_geterrno>
    6aec:	00408821 	move	s1,v0
    6af0:	8fbf001c 	lw	ra,28(sp)
    6af4:	ae220000 	sw	v0,0(s1)
    6af8:	02001021 	move	v0,s0
    6afc:	8fb10018 	lw	s1,24(sp)
    6b00:	8fb00014 	lw	s0,20(sp)
    6b04:	03e00008 	jr	ra
    6b08:	27bd0020 	addiu	sp,sp,32

00006b0c <dup2>:
    6b0c:	00801021 	move	v0,a0
    6b10:	27bdffe0 	addiu	sp,sp,-32
    6b14:	00a03021 	move	a2,a1
    6b18:	2404003f 	li	a0,63
    6b1c:	00402821 	move	a1,v0
    6b20:	afb00014 	sw	s0,20(sp)
    6b24:	afbf001c 	sw	ra,28(sp)
    6b28:	0c001993 	jal	664c <ac_syscall_wrapper>
    6b2c:	afb10018 	sw	s1,24(sp)
    6b30:	00408021 	move	s0,v0
    6b34:	2402ffff 	li	v0,-1
    6b38:	12020006 	beq	s0,v0,6b54 <dup2+0x48>
    6b3c:	02001021 	move	v0,s0
    6b40:	8fbf001c 	lw	ra,28(sp)
    6b44:	8fb10018 	lw	s1,24(sp)
    6b48:	8fb00014 	lw	s0,20(sp)
    6b4c:	03e00008 	jr	ra
    6b50:	27bd0020 	addiu	sp,sp,32
    6b54:	0c001b2f 	jal	6cbc <__errno>
    6b58:	00000000 	nop
    6b5c:	0c001996 	jal	6658 <ac_syscall_geterrno>
    6b60:	00408821 	move	s1,v0
    6b64:	8fbf001c 	lw	ra,28(sp)
    6b68:	ae220000 	sw	v0,0(s1)
    6b6c:	02001021 	move	v0,s0
    6b70:	8fb10018 	lw	s1,24(sp)
    6b74:	8fb00014 	lw	s0,20(sp)
    6b78:	03e00008 	jr	ra
    6b7c:	27bd0020 	addiu	sp,sp,32

00006b80 <fstat>:
    6b80:	27bdffe0 	addiu	sp,sp,-32
    6b84:	00801021 	move	v0,a0
    6b88:	afb00010 	sw	s0,16(sp)
    6b8c:	00a08021 	move	s0,a1
    6b90:	2404006c 	li	a0,108
    6b94:	00402821 	move	a1,v0
    6b98:	02003021 	move	a2,s0
    6b9c:	afb20018 	sw	s2,24(sp)
    6ba0:	afbf001c 	sw	ra,28(sp)
    6ba4:	0c001993 	jal	664c <ac_syscall_wrapper>
    6ba8:	afb10014 	sw	s1,20(sp)
    6bac:	00409021 	move	s2,v0
    6bb0:	2402ffff 	li	v0,-1
    6bb4:	1242002f 	beq	s2,v0,6c74 <fstat+0xf4>
    6bb8:	3c040001 	lui	a0,0x1
    6bbc:	0c001993 	jal	664c <ac_syscall_wrapper>
    6bc0:	3c110001 	lui	s1,0x1
    6bc4:	a6020000 	sh	v0,0(s0)
    6bc8:	0c001993 	jal	664c <ac_syscall_wrapper>
    6bcc:	26240001 	addiu	a0,s1,1
    6bd0:	a6020002 	sh	v0,2(s0)
    6bd4:	0c001993 	jal	664c <ac_syscall_wrapper>
    6bd8:	26240002 	addiu	a0,s1,2
    6bdc:	ae020004 	sw	v0,4(s0)
    6be0:	0c001993 	jal	664c <ac_syscall_wrapper>
    6be4:	26240003 	addiu	a0,s1,3
    6be8:	a6020008 	sh	v0,8(s0)
    6bec:	0c001993 	jal	664c <ac_syscall_wrapper>
    6bf0:	26240004 	addiu	a0,s1,4
    6bf4:	a602000a 	sh	v0,10(s0)
    6bf8:	0c001993 	jal	664c <ac_syscall_wrapper>
    6bfc:	26240005 	addiu	a0,s1,5
    6c00:	a602000c 	sh	v0,12(s0)
    6c04:	0c001993 	jal	664c <ac_syscall_wrapper>
    6c08:	26240006 	addiu	a0,s1,6
    6c0c:	a602000e 	sh	v0,14(s0)
    6c10:	0c001993 	jal	664c <ac_syscall_wrapper>
    6c14:	26240007 	addiu	a0,s1,7
    6c18:	ae020010 	sw	v0,16(s0)
    6c1c:	0c001993 	jal	664c <ac_syscall_wrapper>
    6c20:	26240008 	addiu	a0,s1,8
    6c24:	ae02002c 	sw	v0,44(s0)
    6c28:	0c001993 	jal	664c <ac_syscall_wrapper>
    6c2c:	26240009 	addiu	a0,s1,9
    6c30:	ae020030 	sw	v0,48(s0)
    6c34:	0c001993 	jal	664c <ac_syscall_wrapper>
    6c38:	2624000a 	addiu	a0,s1,10
    6c3c:	ae020014 	sw	v0,20(s0)
    6c40:	0c001993 	jal	664c <ac_syscall_wrapper>
    6c44:	2624000b 	addiu	a0,s1,11
    6c48:	ae02001c 	sw	v0,28(s0)
    6c4c:	0c001993 	jal	664c <ac_syscall_wrapper>
    6c50:	2624000c 	addiu	a0,s1,12
    6c54:	8fbf001c 	lw	ra,28(sp)
    6c58:	ae020024 	sw	v0,36(s0)
    6c5c:	8fb10014 	lw	s1,20(sp)
    6c60:	02401021 	move	v0,s2
    6c64:	8fb00010 	lw	s0,16(sp)
    6c68:	8fb20018 	lw	s2,24(sp)
    6c6c:	03e00008 	jr	ra
    6c70:	27bd0020 	addiu	sp,sp,32
    6c74:	0c001b2f 	jal	6cbc <__errno>
    6c78:	00000000 	nop
    6c7c:	0c001996 	jal	6658 <ac_syscall_geterrno>
    6c80:	00408021 	move	s0,v0
    6c84:	8fbf001c 	lw	ra,28(sp)
    6c88:	ae020000 	sw	v0,0(s0)
    6c8c:	8fb10014 	lw	s1,20(sp)
    6c90:	02401021 	move	v0,s2
    6c94:	8fb00010 	lw	s0,16(sp)
    6c98:	8fb20018 	lw	s2,24(sp)
    6c9c:	03e00008 	jr	ra
    6ca0:	27bd0020 	addiu	sp,sp,32

00006ca4 <utime>:
    6ca4:	03e00008 	jr	ra
    6ca8:	00001021 	move	v0,zero

00006cac <abort>:
    6cac:	27bdffe8 	addiu	sp,sp,-24
    6cb0:	afbf0014 	sw	ra,20(sp)
    6cb4:	0c001987 	jal	661c <_exit>
    6cb8:	24040001 	li	a0,1

00006cbc <__errno>:
    6cbc:	27bdfff8 	addiu	sp,sp,-8
    6cc0:	afbe0004 	sw	s8,4(sp)
    6cc4:	03a0f021 	move	s8,sp
    6cc8:	8f828010 	lw	v0,-32752(gp)
    6ccc:	03c0e821 	move	sp,s8
    6cd0:	8fbe0004 	lw	s8,4(sp)
    6cd4:	27bd0008 	addiu	sp,sp,8
    6cd8:	03e00008 	jr	ra
    6cdc:	00000000 	nop
